(dp0
S'vfooth'
p1
ccopy_reg
_reconstructor
p2
(csympy.matrices.dense
MutableDenseMatrix
p3
c__builtin__
object
p4
Ntp5
Rp6
(dp7
S'rows'
p8
I2
sS'_mat'
p9
(lp10
csympy.core.add
Add
p11
(csympy.core.symbol
Symbol
p12
(S'\\dot{x}'
p13
tp14
Rp15
(dp16
S'_assumptions'
p17
g2
(csympy.core.assumptions
StdFactKB
p18
c__builtin__
dict
p19
(dp20
S'real'
p21
NsS'irrational'
p22
NsS'antihermitian'
p23
NsS'nonpositive'
p24
NsS'algebraic'
p25
NsS'hermitian'
p26
NsS'infinite'
p27
NsS'integer'
p28
NsS'imaginary'
p29
NsS'odd'
p30
NsS'even'
p31
NsS'commutative'
p32
I01
sS'zero'
p33
NsS'positive'
p34
NsS'negative'
p35
NsS'nonnegative'
p36
NsS'complex'
p37
NsS'rational'
p38
NsS'finite'
p39
Nstp40
Rp41
(dp42
S'_generator'
p43
(dp44
sbsbcsympy.core.mul
Mul
p45
(g12
(S'\\dot{\\theta}_{b}'
p46
tp47
Rp48
(dp49
g17
g2
(g18
g19
(dp50
g21
NsS'polar'
p51
Nsg22
Nsg23
Nsg24
Nsg25
Nsg33
Nsg27
Nsg28
Nsg26
Nsg30
Nsg29
Nsg31
Nsg32
I01
sg34
Nsg35
Nsg36
Nsg37
Nsg38
Nsg39
Nstp52
Rp53
(dp54
g43
(dp55
sbsbg11
(g45
(g12
(S'l_{h1}'
p56
tp57
Rp58
(dp59
g17
g2
(g18
g19
(dp60
g21
Nsg51
Nsg22
Nsg23
Nsg24
Nsg25
Nsg33
Nsg27
Nsg28
Nsg26
Nsg30
Nsg29
Nsg31
Nsg32
I01
sg34
Nsg35
Nsg36
Nsg37
Nsg38
Nsg39
Nstp61
Rp62
(dp63
g43
(dp64
sbsbcsympy.functions.elementary.trigonometric
cos
p65
(g11
(g12
(S'\\theta_{b}'
p66
tp67
Rp68
(dp69
g17
g2
(g18
g19
(dp70
g21
Nsg22
Nsg23
Nsg24
Nsg25
Nsg26
Nsg27
Nsg28
Nsg29
Nsg30
Nsg31
Nsg32
I01
sg33
Nsg34
Nsg35
Nsg36
Nsg37
Nsg38
Nsg39
Nstp71
Rp72
(dp73
g43
(dp74
sbsbg12
(S'\\theta_{h1R}'
p75
tp76
Rp77
(dp78
g17
g2
(g18
g19
(dp79
g21
Nsg22
Nsg23
Nsg24
Nsg25
Nsg33
Nsg27
Nsg28
Nsg26
Nsg30
Nsg29
Nsg31
Nsg32
I01
sg34
Nsg35
Nsg36
Nsg37
Nsg38
Nsg39
Nstp80
Rp81
(dp82
g43
(dp83
sbsbtp84
Rp85
(dp86
btp87
Rp88
(dp89
btp90
Rp91
(dp92
bg45
(g12
(S'l_{h2}'
p93
tp94
Rp95
(dp96
g17
g2
(g18
g19
(dp97
g21
Nsg51
Nsg22
Nsg23
Nsg24
Nsg25
Nsg33
Nsg27
Nsg28
Nsg26
Nsg30
Nsg29
Nsg31
Nsg32
I01
sg34
Nsg35
Nsg36
Nsg37
Nsg38
Nsg39
Nstp98
Rp99
(dp100
g43
(dp101
sbsbg65
(g11
(g68
g77
g12
(S'\\theta_{h2R}'
p102
tp103
Rp104
(dp105
g17
g2
(g18
g19
(dp106
g21
Nsg22
Nsg23
Nsg24
Nsg25
Nsg33
Nsg27
Nsg28
Nsg26
Nsg30
Nsg29
Nsg31
Nsg32
I01
sg34
Nsg35
Nsg36
Nsg37
Nsg38
Nsg39
Nstp107
Rp108
(dp109
g43
(dp110
sbsbtp111
Rp112
(dp113
btp114
Rp115
(dp116
btp117
Rp118
(dp119
bg45
(csympy.core.numbers
Float
p120
((I0
S'1L'
p121
I-1
I1
tp122
tp123
Rp124
(dp125
S'_prec'
p126
I53
sbg12
(S'l_{b}'
p127
tp128
Rp129
(dp130
g17
g2
(g18
g19
(dp131
g21
Nsg51
Nsg22
Nsg23
Nsg24
Nsg25
Nsg33
Nsg27
Nsg28
Nsg26
Nsg30
Nsg29
Nsg31
Nsg32
I01
sg34
Nsg35
Nsg36
Nsg37
Nsg38
Nsg39
Nstp132
Rp133
(dp134
g43
(dp135
sbsbcsympy.functions.elementary.trigonometric
sin
p136
(g68
tp137
Rp138
(dp139
btp140
Rp141
(dp142
btp143
Rp144
(dp145
btp146
Rp147
(dp148
bg45
(g12
(S'\\dot{\\theta}_{h1R}'
p149
tp150
Rp151
(dp152
g17
g2
(g18
g19
(dp153
g21
Nsg51
Nsg22
Nsg23
Nsg24
Nsg25
Nsg33
Nsg27
Nsg28
Nsg26
Nsg30
Nsg29
Nsg31
Nsg32
I01
sg34
Nsg35
Nsg36
Nsg37
Nsg38
Nsg39
Nstp154
Rp155
(dp156
g43
(dp157
sbsbg11
(g91
g118
tp158
Rp159
(dp160
btp161
Rp162
(dp163
bg45
(g12
(S'\\dot{\\theta}_{h2R}'
p164
tp165
Rp166
(dp167
g17
g2
(g18
g19
(dp168
g21
Nsg51
Nsg22
Nsg23
Nsg24
Nsg25
Nsg33
Nsg27
Nsg28
Nsg26
Nsg30
Nsg29
Nsg31
Nsg32
I01
sg34
Nsg35
Nsg36
Nsg37
Nsg38
Nsg39
Nstp169
Rp170
(dp171
g43
(dp172
sbsbg95
g115
tp173
Rp174
(dp175
btp176
Rp177
(dp178
bag11
(g12
(S'\\dot{y}'
p179
tp180
Rp181
(dp182
g17
g2
(g18
g19
(dp183
g21
Nsg22
Nsg23
Nsg24
Nsg25
Nsg26
Nsg27
Nsg28
Nsg29
Nsg30
Nsg31
Nsg32
I01
sg33
Nsg34
Nsg35
Nsg36
Nsg37
Nsg38
Nsg39
Nstp184
Rp185
(dp186
g43
(dp187
sbsbg45
(g48
g11
(g45
(g58
g136
(g85
tp188
Rp189
(dp190
btp191
Rp192
(dp193
bg45
(g95
g136
(g112
tp194
Rp195
(dp196
btp197
Rp198
(dp199
bg45
(g120
((I1
S'1L'
p200
I-1
I1
tp201
tp202
Rp203
(dp204
g126
I53
sbg129
g65
(g68
tp205
Rp206
(dp207
btp208
Rp209
(dp210
btp211
Rp212
(dp213
btp214
Rp215
(dp216
bg45
(g151
g11
(g192
g198
tp217
Rp218
(dp219
btp220
Rp221
(dp222
bg45
(g166
g95
g195
tp223
Rp224
(dp225
btp226
Rp227
(dp228
basS'cols'
p229
I1
sbsS'pfooth'
p230
g2
(g3
g4
Ntp231
Rp232
(dp233
g8
I2
sg9
(lp234
g11
(g12
(S'x'
p235
tp236
Rp237
(dp238
g17
g2
(g18
g19
(dp239
g21
Nsg22
Nsg23
Nsg24
Nsg25
Nsg26
Nsg27
Nsg28
Nsg29
Nsg30
Nsg31
Nsg32
I01
sg33
Nsg34
Nsg35
Nsg36
Nsg37
Nsg38
Nsg39
Nstp240
Rp241
(dp242
g43
(dp243
sbsbg45
(g58
g189
tp244
Rp245
(dp246
bg45
(g95
g195
tp247
Rp248
(dp249
bg45
(g120
((I1
S'1L'
p250
I-1
I1
tp251
tp252
Rp253
(dp254
g126
I53
sbg129
g206
tp255
Rp256
(dp257
btp258
Rp259
(dp260
bag11
(g12
(S'y'
p261
tp262
Rp263
(dp264
g17
g2
(g18
g19
(dp265
g21
Nsg22
Nsg23
Nsg24
Nsg25
Nsg26
Nsg27
Nsg28
Nsg29
Nsg30
Nsg31
Nsg32
I01
sg33
Nsg34
Nsg35
Nsg36
Nsg37
Nsg38
Nsg39
Nstp266
Rp267
(dp268
g43
(dp269
sbsbg45
(csympy.core.numbers
NegativeOne
p270
(I-1
tp271
Rp272
(dp273
bg58
g88
tp274
Rp275
(dp276
bg45
(g272
g95
g115
tp277
Rp278
(dp279
bg45
(g120
((I1
S'1L'
p280
I-1
I1
tp281
tp282
Rp283
(dp284
g126
I53
sbg129
g138
tp285
Rp286
(dp287
btp288
Rp289
(dp290
basg229
I1
sbsS'pfootf'
p291
g2
(g3
g4
Ntp292
Rp293
(dp294
g8
I2
sg9
(lp295
g11
(g237
g45
(g12
(S'l_{f1}'
p296
tp297
Rp298
(dp299
g17
g2
(g18
g19
(dp300
g21
Nsg51
Nsg22
Nsg23
Nsg24
Nsg25
Nsg33
Nsg27
Nsg28
Nsg26
Nsg30
Nsg29
Nsg31
Nsg32
I01
sg34
Nsg35
Nsg36
Nsg37
Nsg38
Nsg39
Nstp301
Rp302
(dp303
g43
(dp304
sbsbg136
(g11
(g68
g12
(S'\\theta_{f1R}'
p305
tp306
Rp307
(dp308
g17
g2
(g18
g19
(dp309
g21
Nsg22
Nsg23
Nsg24
Nsg25
Nsg33
Nsg27
Nsg28
Nsg26
Nsg30
Nsg29
Nsg31
Nsg32
I01
sg34
Nsg35
Nsg36
Nsg37
Nsg38
Nsg39
Nstp310
Rp311
(dp312
g43
(dp313
sbsbtp314
Rp315
(dp316
btp317
Rp318
(dp319
btp320
Rp321
(dp322
bg45
(g12
(S'l_{f2}'
p323
tp324
Rp325
(dp326
g17
g2
(g18
g19
(dp327
g21
Nsg51
Nsg22
Nsg23
Nsg24
Nsg25
Nsg33
Nsg27
Nsg28
Nsg26
Nsg30
Nsg29
Nsg31
Nsg32
I01
sg34
Nsg35
Nsg36
Nsg37
Nsg38
Nsg39
Nstp328
Rp329
(dp330
g43
(dp331
sbsbg136
(g11
(g68
g307
g12
(S'\\theta_{f2R}'
p332
tp333
Rp334
(dp335
g17
g2
(g18
g19
(dp336
g21
Nsg22
Nsg23
Nsg24
Nsg25
Nsg33
Nsg27
Nsg28
Nsg26
Nsg30
Nsg29
Nsg31
Nsg32
I01
sg34
Nsg35
Nsg36
Nsg37
Nsg38
Nsg39
Nstp337
Rp338
(dp339
g43
(dp340
sbsbtp341
Rp342
(dp343
btp344
Rp345
(dp346
btp347
Rp348
(dp349
bg45
(g120
((I0
S'1L'
p350
I-1
I1
tp351
tp352
Rp353
(dp354
g126
I53
sbg129
g206
tp355
Rp356
(dp357
btp358
Rp359
(dp360
bag11
(g263
g45
(g272
g298
g65
(g315
tp361
Rp362
(dp363
btp364
Rp365
(dp366
bg45
(g272
g325
g65
(g342
tp367
Rp368
(dp369
btp370
Rp371
(dp372
bg45
(g120
((I0
S'1L'
p373
I-1
I1
tp374
tp375
Rp376
(dp377
g126
I53
sbg129
g138
tp378
Rp379
(dp380
btp381
Rp382
(dp383
basg229
I1
sbsS'vfootf'
p384
g2
(g3
g4
Ntp385
Rp386
(dp387
g8
I2
sg9
(lp388
g11
(g15
g45
(g48
g11
(g45
(g298
g362
tp389
Rp390
(dp391
bg45
(g325
g368
tp392
Rp393
(dp394
bg45
(g120
((I1
S'1L'
p395
I-1
I1
tp396
tp397
Rp398
(dp399
g126
I53
sbg129
g138
tp400
Rp401
(dp402
btp403
Rp404
(dp405
btp406
Rp407
(dp408
bg45
(g12
(S'\\dot{\\theta}_{f1R}'
p409
tp410
Rp411
(dp412
g17
g2
(g18
g19
(dp413
g21
Nsg51
Nsg22
Nsg23
Nsg24
Nsg25
Nsg33
Nsg27
Nsg28
Nsg26
Nsg30
Nsg29
Nsg31
Nsg32
I01
sg34
Nsg35
Nsg36
Nsg37
Nsg38
Nsg39
Nstp414
Rp415
(dp416
g43
(dp417
sbsbg11
(g390
g393
tp418
Rp419
(dp420
btp421
Rp422
(dp423
bg45
(g12
(S'\\dot{\\theta}_{f2R}'
p424
tp425
Rp426
(dp427
g17
g2
(g18
g19
(dp428
g21
Nsg51
Nsg22
Nsg23
Nsg24
Nsg25
Nsg33
Nsg27
Nsg28
Nsg26
Nsg30
Nsg29
Nsg31
Nsg32
I01
sg34
Nsg35
Nsg36
Nsg37
Nsg38
Nsg39
Nstp429
Rp430
(dp431
g43
(dp432
sbsbg325
g368
tp433
Rp434
(dp435
btp436
Rp437
(dp438
bag11
(g181
g45
(g48
g11
(g45
(g298
g318
tp439
Rp440
(dp441
bg45
(g325
g345
tp442
Rp443
(dp444
bg45
(g120
((I0
S'1L'
p445
I-1
I1
tp446
tp447
Rp448
(dp449
g126
I53
sbg129
g206
tp450
Rp451
(dp452
btp453
Rp454
(dp455
btp456
Rp457
(dp458
bg45
(g411
g11
(g440
g443
tp459
Rp460
(dp461
btp462
Rp463
(dp464
bg45
(g426
g325
g345
tp465
Rp466
(dp467
btp468
Rp469
(dp470
basg229
I1
sbsS'EOM'
p471
g2
(g3
g4
Ntp472
Rp473
(dp474
g8
I7
sg9
(lp475
g11
(g45
(g120
((I1
S'1L'
p476
I0
I1
tp477
tp478
Rp479
(dp480
g126
I53
sbg12
(S'G_{xfL}'
p481
tp482
Rp483
(dp484
g17
g2
(g18
g19
(dp485
g51
Nsg32
I01
sg23
Nsg24
Nsg34
Nsg35
Nsg36
Nsg25
Nsg33
Nsg37
Nsg38
Nsg27
Nsg26
Nsg39
Nsg22
Nstp486
Rp487
(dp488
g43
(dp489
sbsbtp490
Rp491
(dp492
bg45
(g120
((I1
S'1L'
p493
I0
I1
tp494
tp495
Rp496
(dp497
g126
I53
sbg12
(S'G_{xfR}'
p498
tp499
Rp500
(dp501
g17
g2
(g18
g19
(dp502
g51
Nsg32
I01
sg23
Nsg24
Nsg34
Nsg35
Nsg36
Nsg25
Nsg33
Nsg37
Nsg38
Nsg27
Nsg26
Nsg39
Nsg22
Nstp503
Rp504
(dp505
g43
(dp506
sbsbtp507
Rp508
(dp509
bg45
(g120
((I1
S'1L'
p510
I0
I1
tp511
tp512
Rp513
(dp514
g126
I53
sbg12
(S'G_{xhL}'
p515
tp516
Rp517
(dp518
g17
g2
(g18
g19
(dp519
g51
Nsg32
I01
sg23
Nsg24
Nsg34
Nsg35
Nsg36
Nsg25
Nsg33
Nsg37
Nsg38
Nsg27
Nsg26
Nsg39
Nsg22
Nstp520
Rp521
(dp522
g43
(dp523
sbsbtp524
Rp525
(dp526
bg45
(g120
((I1
S'1L'
p527
I0
I1
tp528
tp529
Rp530
(dp531
g126
I53
sbg12
(S'G_{xhR}'
p532
tp533
Rp534
(dp535
g17
g2
(g18
g19
(dp536
g51
Nsg32
I01
sg23
Nsg24
Nsg34
Nsg35
Nsg36
Nsg25
Nsg33
Nsg37
Nsg38
Nsg27
Nsg26
Nsg39
Nsg22
Nstp537
Rp538
(dp539
g43
(dp540
sbsbtp541
Rp542
(dp543
bg45
(g120
((I0
S'1L'
p544
I0
I1
tp545
tp546
Rp547
(dp548
g126
I53
sbg12
(S'\\ddot{x}'
p549
tp550
Rp551
(dp552
g17
g2
(g18
g19
(dp553
g51
Nsg32
I01
sg23
Nsg24
Nsg34
Nsg35
Nsg36
Nsg25
Nsg33
Nsg37
Nsg38
Nsg27
Nsg26
Nsg39
Nsg22
Nstp554
Rp555
(dp556
g43
(dp557
sbsbg12
(S'm_{b}'
p558
tp559
Rp560
(dp561
g17
g2
(g18
g19
(dp562
g51
Nsg32
I01
sg23
Nsg24
Nsg34
Nsg35
Nsg36
Nsg33
Nsg37
Nsg27
Nsg26
Nsg39
Nstp563
Rp564
(dp565
g43
(dp566
sbsbtp567
Rp568
(dp569
bg45
(g120
((I0
S'1L'
p570
I1
I1
tp571
tp572
Rp573
(dp574
g126
I53
sbg551
g12
(S'm_{f1}'
p575
tp576
Rp577
(dp578
g17
g2
(g18
g19
(dp579
g51
Nsg32
I01
sg23
Nsg24
Nsg34
Nsg35
Nsg36
Nsg25
Nsg33
Nsg37
Nsg38
Nsg27
Nsg26
Nsg39
Nsg22
Nstp580
Rp581
(dp582
g43
(dp583
sbsbtp584
Rp585
(dp586
bg45
(g120
((I0
S'1L'
p587
I1
I1
tp588
tp589
Rp590
(dp591
g126
I53
sbg551
g12
(S'm_{f2}'
p592
tp593
Rp594
(dp595
g17
g2
(g18
g19
(dp596
g51
Nsg32
I01
sg23
Nsg24
Nsg34
Nsg35
Nsg36
Nsg25
Nsg33
Nsg37
Nsg38
Nsg27
Nsg26
Nsg39
Nsg22
Nstp597
Rp598
(dp599
g43
(dp600
sbsbtp601
Rp602
(dp603
bg45
(g120
((I0
S'1L'
p604
I1
I1
tp605
tp606
Rp607
(dp608
g126
I53
sbg551
g12
(S'm_{h1}'
p609
tp610
Rp611
(dp612
g17
g2
(g18
g19
(dp613
g51
Nsg32
I01
sg23
Nsg24
Nsg34
Nsg35
Nsg36
Nsg25
Nsg33
Nsg37
Nsg38
Nsg27
Nsg26
Nsg39
Nsg22
Nstp614
Rp615
(dp616
g43
(dp617
sbsbtp618
Rp619
(dp620
bg45
(g120
((I0
S'1L'
p621
I1
I1
tp622
tp623
Rp624
(dp625
g126
I53
sbg551
g12
(S'm_{h2}'
p626
tp627
Rp628
(dp629
g17
g2
(g18
g19
(dp630
g51
Nsg32
I01
sg23
Nsg24
Nsg34
Nsg35
Nsg36
Nsg25
Nsg33
Nsg37
Nsg38
Nsg27
Nsg26
Nsg39
Nsg22
Nstp631
Rp632
(dp633
g43
(dp634
sbsbtp635
Rp636
(dp637
bg45
(g120
((I0
S'1L'
p638
I-1
I1
tp639
tp640
Rp641
(dp642
g126
I53
sbg12
(S'\\ddot{\\theta}_{b}'
p643
tp644
Rp645
(dp646
g17
g2
(g18
g19
(dp647
g51
Nsg32
I01
sg23
Nsg24
Nsg34
Nsg35
Nsg36
Nsg25
Nsg33
Nsg37
Nsg38
Nsg27
Nsg26
Nsg39
Nsg22
Nstp648
Rp649
(dp650
g43
(dp651
sbsbg298
g577
g65
(g11
(g68
g12
(S'\\theta_{f1L}'
p652
tp653
Rp654
(dp655
g17
g2
(g18
g19
(dp656
g21
Nsg22
Nsg23
Nsg24
Nsg25
Nsg33
Nsg27
Nsg28
Nsg26
Nsg30
Nsg29
Nsg31
Nsg32
I01
sg34
Nsg35
Nsg36
Nsg37
Nsg38
Nsg39
Nstp657
Rp658
(dp659
g43
(dp660
sbsbtp661
Rp662
(dp663
btp664
Rp665
(dp666
btp667
Rp668
(dp669
bg45
(g120
((I0
S'1L'
p670
I-1
I1
tp671
tp672
Rp673
(dp674
g126
I53
sbg645
g298
g577
g362
tp675
Rp676
(dp677
bg45
(g120
((I0
S'1L'
p678
I-1
I1
tp679
tp680
Rp681
(dp682
g126
I53
sbg645
g325
g594
g65
(g11
(g68
g654
g12
(S'\\theta_{f2L}'
p683
tp684
Rp685
(dp686
g17
g2
(g18
g19
(dp687
g21
Nsg22
Nsg23
Nsg24
Nsg25
Nsg33
Nsg27
Nsg28
Nsg26
Nsg30
Nsg29
Nsg31
Nsg32
I01
sg34
Nsg35
Nsg36
Nsg37
Nsg38
Nsg39
Nstp688
Rp689
(dp690
g43
(dp691
sbsbtp692
Rp693
(dp694
btp695
Rp696
(dp697
btp698
Rp699
(dp700
bg45
(g120
((I0
S'1L'
p701
I-1
I1
tp702
tp703
Rp704
(dp705
g126
I53
sbg645
g325
g594
g368
tp706
Rp707
(dp708
bg45
(g120
((I0
S'1L'
p709
I-1
I1
tp710
tp711
Rp712
(dp713
g126
I53
sbg645
g58
g611
g65
(g11
(g68
g12
(S'\\theta_{h1L}'
p714
tp715
Rp716
(dp717
g17
g2
(g18
g19
(dp718
g21
Nsg22
Nsg23
Nsg24
Nsg25
Nsg33
Nsg27
Nsg28
Nsg26
Nsg30
Nsg29
Nsg31
Nsg32
I01
sg34
Nsg35
Nsg36
Nsg37
Nsg38
Nsg39
Nstp719
Rp720
(dp721
g43
(dp722
sbsbtp723
Rp724
(dp725
btp726
Rp727
(dp728
btp729
Rp730
(dp731
bg45
(g120
((I0
S'1L'
p732
I-1
I1
tp733
tp734
Rp735
(dp736
g126
I53
sbg645
g58
g611
g88
tp737
Rp738
(dp739
bg45
(g120
((I0
S'1L'
p740
I-1
I1
tp741
tp742
Rp743
(dp744
g126
I53
sbg645
g95
g628
g65
(g11
(g68
g716
g12
(S'\\theta_{h2L}'
p745
tp746
Rp747
(dp748
g17
g2
(g18
g19
(dp749
g21
Nsg22
Nsg23
Nsg24
Nsg25
Nsg33
Nsg27
Nsg28
Nsg26
Nsg30
Nsg29
Nsg31
Nsg32
I01
sg34
Nsg35
Nsg36
Nsg37
Nsg38
Nsg39
Nstp750
Rp751
(dp752
g43
(dp753
sbsbtp754
Rp755
(dp756
btp757
Rp758
(dp759
btp760
Rp761
(dp762
bg45
(g120
((I0
S'1L'
p763
I-1
I1
tp764
tp765
Rp766
(dp767
g126
I53
sbg645
g95
g628
g115
tp768
Rp769
(dp770
bg45
(g120
((I0
S'1L'
p771
I-1
I1
tp772
tp773
Rp774
(dp775
g126
I53
sbg12
(S'\\ddot{\\theta}_{f1L}'
p776
tp777
Rp778
(dp779
g17
g2
(g18
g19
(dp780
g51
Nsg32
I01
sg23
Nsg24
Nsg34
Nsg35
Nsg36
Nsg25
Nsg33
Nsg37
Nsg38
Nsg27
Nsg26
Nsg39
Nsg22
Nstp781
Rp782
(dp783
g43
(dp784
sbsbg298
g577
g665
tp785
Rp786
(dp787
bg45
(g120
((I0
S'1L'
p788
I-1
I1
tp789
tp790
Rp791
(dp792
g126
I53
sbg778
g325
g594
g696
tp793
Rp794
(dp795
bg45
(g120
((I0
S'1L'
p796
I-1
I1
tp797
tp798
Rp799
(dp800
g126
I53
sbg12
(S'\\ddot{\\theta}_{f1R}'
p801
tp802
Rp803
(dp804
g17
g2
(g18
g19
(dp805
g51
Nsg32
I01
sg23
Nsg24
Nsg34
Nsg35
Nsg36
Nsg25
Nsg33
Nsg37
Nsg38
Nsg27
Nsg26
Nsg39
Nsg22
Nstp806
Rp807
(dp808
g43
(dp809
sbsbg298
g577
g362
tp810
Rp811
(dp812
bg45
(g120
((I0
S'1L'
p813
I-1
I1
tp814
tp815
Rp816
(dp817
g126
I53
sbg803
g325
g594
g368
tp818
Rp819
(dp820
bg45
(g120
((I0
S'1L'
p821
I-1
I1
tp822
tp823
Rp824
(dp825
g126
I53
sbg12
(S'\\ddot{\\theta}_{f2L}'
p826
tp827
Rp828
(dp829
g17
g2
(g18
g19
(dp830
g51
Nsg32
I01
sg23
Nsg24
Nsg34
Nsg35
Nsg36
Nsg25
Nsg33
Nsg37
Nsg38
Nsg27
Nsg26
Nsg39
Nsg22
Nstp831
Rp832
(dp833
g43
(dp834
sbsbg325
g594
g696
tp835
Rp836
(dp837
bg45
(g120
((I0
S'1L'
p838
I-1
I1
tp839
tp840
Rp841
(dp842
g126
I53
sbg12
(S'\\ddot{\\theta}_{f2R}'
p843
tp844
Rp845
(dp846
g17
g2
(g18
g19
(dp847
g51
Nsg39
Nsg32
I01
sg23
Nsg24
Nsg34
Nsg35
Nsg36
Nsg25
Nsg26
Nsg33
Nsg38
Nsg27
Nsg37
Nsg22
Nstp848
Rp849
(dp850
g43
(dp851
sbsbg325
g594
g368
tp852
Rp853
(dp854
bg45
(g120
((I0
S'1L'
p855
I-1
I1
tp856
tp857
Rp858
(dp859
g126
I53
sbg12
(S'\\ddot{\\theta}_{h1L}'
p860
tp861
Rp862
(dp863
g17
g2
(g18
g19
(dp864
g51
Nsg32
I01
sg23
Nsg24
Nsg34
Nsg35
Nsg36
Nsg25
Nsg33
Nsg37
Nsg38
Nsg27
Nsg26
Nsg39
Nsg22
Nstp865
Rp866
(dp867
g43
(dp868
sbsbg58
g611
g727
tp869
Rp870
(dp871
bg45
(g120
((I0
S'1L'
p872
I-1
I1
tp873
tp874
Rp875
(dp876
g126
I53
sbg862
g95
g628
g758
tp877
Rp878
(dp879
bg45
(g120
((I0
S'1L'
p880
I-1
I1
tp881
tp882
Rp883
(dp884
g126
I53
sbg12
(S'\\ddot{\\theta}_{h1R}'
p885
tp886
Rp887
(dp888
g17
g2
(g18
g19
(dp889
g51
Nsg32
I01
sg23
Nsg24
Nsg34
Nsg35
Nsg36
Nsg25
Nsg33
Nsg37
Nsg38
Nsg27
Nsg26
Nsg39
Nsg22
Nstp890
Rp891
(dp892
g43
(dp893
sbsbg58
g611
g88
tp894
Rp895
(dp896
bg45
(g120
((I0
S'1L'
p897
I-1
I1
tp898
tp899
Rp900
(dp901
g126
I53
sbg887
g95
g628
g115
tp902
Rp903
(dp904
bg45
(g120
((I0
S'1L'
p905
I-1
I1
tp906
tp907
Rp908
(dp909
g126
I53
sbg12
(S'\\ddot{\\theta}_{h2L}'
p910
tp911
Rp912
(dp913
g17
g2
(g18
g19
(dp914
g51
Nsg32
I01
sg23
Nsg24
Nsg34
Nsg35
Nsg36
Nsg25
Nsg33
Nsg37
Nsg38
Nsg27
Nsg26
Nsg39
Nsg22
Nstp915
Rp916
(dp917
g43
(dp918
sbsbg95
g628
g758
tp919
Rp920
(dp921
bg45
(g120
((I0
S'1L'
p922
I-1
I1
tp923
tp924
Rp925
(dp926
g126
I53
sbg12
(S'\\ddot{\\theta}_{h2R}'
p927
tp928
Rp929
(dp930
g17
g2
(g18
g19
(dp931
g51
Nsg32
I01
sg23
Nsg24
Nsg34
Nsg35
Nsg36
Nsg25
Nsg33
Nsg37
Nsg38
Nsg27
Nsg26
Nsg39
Nsg22
Nstp932
Rp933
(dp934
g43
(dp935
sbsbg95
g628
g115
tp936
Rp937
(dp938
bg45
(g120
((I0
S'1L'
p939
I0
I1
tp940
tp941
Rp942
(dp943
g126
I53
sbg645
g129
g611
g138
tp944
Rp945
(dp946
bg45
(g120
((I0
S'1L'
p947
I0
I1
tp948
tp949
Rp950
(dp951
g126
I53
sbg645
g129
g628
g138
tp952
Rp953
(dp954
bg45
(g120
((I0
S'1L'
p955
I0
I1
tp956
tp957
Rp958
(dp959
g126
I53
sbg645
g298
g594
g665
tp960
Rp961
(dp962
bg45
(g120
((I0
S'1L'
p963
I0
I1
tp964
tp965
Rp966
(dp967
g126
I53
sbg645
g298
g594
g362
tp968
Rp969
(dp970
bg45
(g120
((I0
S'1L'
p971
I0
I1
tp972
tp973
Rp974
(dp975
g126
I53
sbg645
g58
g628
g727
tp976
Rp977
(dp978
bg45
(g120
((I0
S'1L'
p979
I0
I1
tp980
tp981
Rp982
(dp983
g126
I53
sbg645
g58
g628
g88
tp984
Rp985
(dp986
bg45
(g120
((I0
S'1L'
p987
I0
I1
tp988
tp989
Rp990
(dp991
g126
I53
sbg778
g298
g594
g665
tp992
Rp993
(dp994
bg45
(g120
((I0
S'1L'
p995
I0
I1
tp996
tp997
Rp998
(dp999
g126
I53
sbg803
g298
g594
g362
tp1000
Rp1001
(dp1002
bg45
(g120
((I0
S'1L'
p1003
I0
I1
tp1004
tp1005
Rp1006
(dp1007
g126
I53
sbg862
g58
g628
g727
tp1008
Rp1009
(dp1010
bg45
(g120
((I0
S'1L'
p1011
I0
I1
tp1012
tp1013
Rp1014
(dp1015
g126
I53
sbg887
g58
g628
g88
tp1016
Rp1017
(dp1018
bg45
(g120
((I0
S'1L'
p1019
I0
I1
tp1020
tp1021
Rp1022
(dp1023
g126
I53
sbg129
g611
csympy.core.power
Pow
p1024
(g48
csympy.core.numbers
Integer
p1025
(I2
tp1026
Rp1027
(dp1028
btp1029
Rp1030
(dp1031
bg206
tp1032
Rp1033
(dp1034
bg45
(g120
((I0
S'1L'
p1035
I0
I1
tp1036
tp1037
Rp1038
(dp1039
g126
I53
sbg129
g628
g1030
g206
tp1040
Rp1041
(dp1042
bg45
(g120
((I1
S'1L'
p1043
I-1
I1
tp1044
tp1045
Rp1046
(dp1047
g126
I53
sbg298
g577
g1030
g136
(g662
tp1048
Rp1049
(dp1050
btp1051
Rp1052
(dp1053
bg45
(g120
((I1
S'1L'
p1054
I-1
I1
tp1055
tp1056
Rp1057
(dp1058
g126
I53
sbg298
g577
g1030
g318
tp1059
Rp1060
(dp1061
bg45
(g120
((I1
S'1L'
p1062
I-1
I1
tp1063
tp1064
Rp1065
(dp1066
g126
I53
sbg298
g577
g1024
(g12
(S'\\dot{\\theta}_{f1L}'
p1067
tp1068
Rp1069
(dp1070
g17
g2
(g18
g19
(dp1071
g21
Nsg51
Nsg22
Nsg23
Nsg24
Nsg25
Nsg33
Nsg27
Nsg28
Nsg26
Nsg30
Nsg29
Nsg31
Nsg32
I01
sg34
Nsg35
Nsg36
Nsg37
Nsg38
Nsg39
Nstp1072
Rp1073
(dp1074
g43
(dp1075
sbsbg1027
tp1076
Rp1077
(dp1078
bg1049
tp1079
Rp1080
(dp1081
bg45
(g120
((I1
S'1L'
p1082
I-1
I1
tp1083
tp1084
Rp1085
(dp1086
g126
I53
sbg298
g577
g1024
(g411
g1027
tp1087
Rp1088
(dp1089
bg318
tp1090
Rp1091
(dp1092
bg45
(g120
((I1
S'1L'
p1093
I-1
I1
tp1094
tp1095
Rp1096
(dp1097
g126
I53
sbg325
g594
g1030
g136
(g693
tp1098
Rp1099
(dp1100
btp1101
Rp1102
(dp1103
bg45
(g120
((I1
S'1L'
p1104
I-1
I1
tp1105
tp1106
Rp1107
(dp1108
g126
I53
sbg325
g594
g1030
g345
tp1109
Rp1110
(dp1111
bg45
(g120
((I1
S'1L'
p1112
I-1
I1
tp1113
tp1114
Rp1115
(dp1116
g126
I53
sbg325
g594
g1077
g1099
tp1117
Rp1118
(dp1119
bg45
(g120
((I1
S'1L'
p1120
I-1
I1
tp1121
tp1122
Rp1123
(dp1124
g126
I53
sbg325
g594
g1088
g345
tp1125
Rp1126
(dp1127
bg45
(g120
((I1
S'1L'
p1128
I-1
I1
tp1129
tp1130
Rp1131
(dp1132
g126
I53
sbg325
g594
g1024
(g12
(S'\\dot{\\theta}_{f2L}'
p1133
tp1134
Rp1135
(dp1136
g17
g2
(g18
g19
(dp1137
g21
Nsg51
Nsg22
Nsg23
Nsg24
Nsg25
Nsg33
Nsg27
Nsg28
Nsg26
Nsg30
Nsg29
Nsg31
Nsg32
I01
sg34
Nsg35
Nsg36
Nsg37
Nsg38
Nsg39
Nstp1138
Rp1139
(dp1140
g43
(dp1141
sbsbg1027
tp1142
Rp1143
(dp1144
bg1099
tp1145
Rp1146
(dp1147
bg45
(g120
((I1
S'1L'
p1148
I-1
I1
tp1149
tp1150
Rp1151
(dp1152
g126
I53
sbg325
g594
g1024
(g426
g1027
tp1153
Rp1154
(dp1155
bg345
tp1156
Rp1157
(dp1158
bg45
(g120
((I1
S'1L'
p1159
I-1
I1
tp1160
tp1161
Rp1162
(dp1163
g126
I53
sbg58
g611
g1030
g136
(g724
tp1164
Rp1165
(dp1166
btp1167
Rp1168
(dp1169
bg45
(g120
((I1
S'1L'
p1170
I-1
I1
tp1171
tp1172
Rp1173
(dp1174
g126
I53
sbg58
g611
g1030
g189
tp1175
Rp1176
(dp1177
bg45
(g120
((I1
S'1L'
p1178
I-1
I1
tp1179
tp1180
Rp1181
(dp1182
g126
I53
sbg58
g611
g1024
(g12
(S'\\dot{\\theta}_{h1L}'
p1183
tp1184
Rp1185
(dp1186
g17
g2
(g18
g19
(dp1187
g21
Nsg51
Nsg22
Nsg23
Nsg24
Nsg25
Nsg26
Nsg27
Nsg28
Nsg29
Nsg30
Nsg31
Nsg32
I01
sg33
Nsg34
Nsg35
Nsg36
Nsg37
Nsg38
Nsg39
Nstp1188
Rp1189
(dp1190
g43
(dp1191
sbsbg1027
tp1192
Rp1193
(dp1194
bg1165
tp1195
Rp1196
(dp1197
bg45
(g120
((I1
S'1L'
p1198
I-1
I1
tp1199
tp1200
Rp1201
(dp1202
g126
I53
sbg58
g611
g1024
(g151
g1027
tp1203
Rp1204
(dp1205
bg189
tp1206
Rp1207
(dp1208
bg45
(g120
((I1
S'1L'
p1209
I-1
I1
tp1210
tp1211
Rp1212
(dp1213
g126
I53
sbg95
g628
g1030
g136
(g755
tp1214
Rp1215
(dp1216
btp1217
Rp1218
(dp1219
bg45
(g120
((I1
S'1L'
p1220
I-1
I1
tp1221
tp1222
Rp1223
(dp1224
g126
I53
sbg95
g628
g1030
g195
tp1225
Rp1226
(dp1227
bg45
(g120
((I1
S'1L'
p1228
I-1
I1
tp1229
tp1230
Rp1231
(dp1232
g126
I53
sbg95
g628
g1193
g1215
tp1233
Rp1234
(dp1235
bg45
(g120
((I1
S'1L'
p1236
I-1
I1
tp1237
tp1238
Rp1239
(dp1240
g126
I53
sbg95
g628
g1204
g195
tp1241
Rp1242
(dp1243
bg45
(g120
((I1
S'1L'
p1244
I-1
I1
tp1245
tp1246
Rp1247
(dp1248
g126
I53
sbg95
g628
g1024
(g12
(S'\\dot{\\theta}_{h2L}'
p1249
tp1250
Rp1251
(dp1252
g17
g2
(g18
g19
(dp1253
g21
Nsg51
Nsg22
Nsg23
Nsg24
Nsg25
Nsg33
Nsg27
Nsg28
Nsg26
Nsg30
Nsg29
Nsg31
Nsg32
I01
sg34
Nsg35
Nsg36
Nsg37
Nsg38
Nsg39
Nstp1254
Rp1255
(dp1256
g43
(dp1257
sbsbg1027
tp1258
Rp1259
(dp1260
bg1215
tp1261
Rp1262
(dp1263
bg45
(g120
((I1
S'1L'
p1264
I-1
I1
tp1265
tp1266
Rp1267
(dp1268
g126
I53
sbg95
g628
g1024
(g166
g1027
tp1269
Rp1270
(dp1271
bg195
tp1272
Rp1273
(dp1274
bg45
(g120
((I1
S'1L'
p1275
I0
I1
tp1276
tp1277
Rp1278
(dp1279
g126
I53
sbg645
g129
g577
g138
tp1280
Rp1281
(dp1282
bg45
(g120
((I1
S'1L'
p1283
I0
I1
tp1284
tp1285
Rp1286
(dp1287
g126
I53
sbg645
g129
g594
g138
tp1288
Rp1289
(dp1290
bg45
(g120
((I1
S'1L'
p1291
I0
I1
tp1292
tp1293
Rp1294
(dp1295
g126
I53
sbg129
g577
g1030
g206
tp1296
Rp1297
(dp1298
bg45
(g120
((I1
S'1L'
p1299
I0
I1
tp1300
tp1301
Rp1302
(dp1303
g126
I53
sbg129
g594
g1030
g206
tp1304
Rp1305
(dp1306
bg45
(g120
((I1
S'1L'
p1307
I0
I1
tp1308
tp1309
Rp1310
(dp1311
g126
I53
sbg298
g594
g1030
g1049
tp1312
Rp1313
(dp1314
bg45
(g120
((I1
S'1L'
p1315
I0
I1
tp1316
tp1317
Rp1318
(dp1319
g126
I53
sbg298
g594
g1030
g318
tp1320
Rp1321
(dp1322
bg45
(g120
((I1
S'1L'
p1323
I0
I1
tp1324
tp1325
Rp1326
(dp1327
g126
I53
sbg298
g594
g1077
g1049
tp1328
Rp1329
(dp1330
bg45
(g120
((I1
S'1L'
p1331
I0
I1
tp1332
tp1333
Rp1334
(dp1335
g126
I53
sbg298
g594
g1088
g318
tp1336
Rp1337
(dp1338
bg45
(g120
((I1
S'1L'
p1339
I0
I1
tp1340
tp1341
Rp1342
(dp1343
g126
I53
sbg58
g628
g1030
g1165
tp1344
Rp1345
(dp1346
bg45
(g120
((I1
S'1L'
p1347
I0
I1
tp1348
tp1349
Rp1350
(dp1351
g126
I53
sbg58
g628
g1030
g189
tp1352
Rp1353
(dp1354
bg45
(g120
((I1
S'1L'
p1355
I0
I1
tp1356
tp1357
Rp1358
(dp1359
g126
I53
sbg58
g628
g1193
g1165
tp1360
Rp1361
(dp1362
bg45
(g120
((I1
S'1L'
p1363
I0
I1
tp1364
tp1365
Rp1366
(dp1367
g126
I53
sbg58
g628
g1204
g189
tp1368
Rp1369
(dp1370
bg45
(g120
((I1
S'1L'
p1371
I0
I1
tp1372
tp1373
Rp1374
(dp1375
g126
I53
sbg48
g1069
g298
g577
g1049
tp1376
Rp1377
(dp1378
bg45
(g120
((I1
S'1L'
p1379
I0
I1
tp1380
tp1381
Rp1382
(dp1383
g126
I53
sbg48
g1069
g325
g594
g1099
tp1384
Rp1385
(dp1386
bg45
(g120
((I1
S'1L'
p1387
I0
I1
tp1388
tp1389
Rp1390
(dp1391
g126
I53
sbg48
g411
g298
g577
g318
tp1392
Rp1393
(dp1394
bg45
(g120
((I1
S'1L'
p1395
I0
I1
tp1396
tp1397
Rp1398
(dp1399
g126
I53
sbg48
g411
g325
g594
g345
tp1400
Rp1401
(dp1402
bg45
(g120
((I1
S'1L'
p1403
I0
I1
tp1404
tp1405
Rp1406
(dp1407
g126
I53
sbg48
g1135
g325
g594
g1099
tp1408
Rp1409
(dp1410
bg45
(g120
((I1
S'1L'
p1411
I0
I1
tp1412
tp1413
Rp1414
(dp1415
g126
I53
sbg48
g426
g325
g594
g345
tp1416
Rp1417
(dp1418
bg45
(g120
((I1
S'1L'
p1419
I0
I1
tp1420
tp1421
Rp1422
(dp1423
g126
I53
sbg48
g1185
g58
g611
g1165
tp1424
Rp1425
(dp1426
bg45
(g120
((I1
S'1L'
p1427
I0
I1
tp1428
tp1429
Rp1430
(dp1431
g126
I53
sbg48
g1185
g95
g628
g1215
tp1432
Rp1433
(dp1434
bg45
(g120
((I1
S'1L'
p1435
I0
I1
tp1436
tp1437
Rp1438
(dp1439
g126
I53
sbg48
g151
g58
g611
g189
tp1440
Rp1441
(dp1442
bg45
(g120
((I1
S'1L'
p1443
I0
I1
tp1444
tp1445
Rp1446
(dp1447
g126
I53
sbg48
g151
g95
g628
g195
tp1448
Rp1449
(dp1450
bg45
(g120
((I1
S'1L'
p1451
I0
I1
tp1452
tp1453
Rp1454
(dp1455
g126
I53
sbg48
g1251
g95
g628
g1215
tp1456
Rp1457
(dp1458
bg45
(g120
((I1
S'1L'
p1459
I0
I1
tp1460
tp1461
Rp1462
(dp1463
g126
I53
sbg48
g166
g95
g628
g195
tp1464
Rp1465
(dp1466
bg45
(g120
((I1
S'1L'
p1467
I0
I1
tp1468
tp1469
Rp1470
(dp1471
g126
I53
sbg1069
g1135
g325
g594
g1099
tp1472
Rp1473
(dp1474
bg45
(g120
((I1
S'1L'
p1475
I0
I1
tp1476
tp1477
Rp1478
(dp1479
g126
I53
sbg411
g426
g325
g594
g345
tp1480
Rp1481
(dp1482
bg45
(g120
((I1
S'1L'
p1483
I0
I1
tp1484
tp1485
Rp1486
(dp1487
g126
I53
sbg1185
g1251
g95
g628
g1215
tp1488
Rp1489
(dp1490
bg45
(g120
((I1
S'1L'
p1491
I0
I1
tp1492
tp1493
Rp1494
(dp1495
g126
I53
sbg151
g166
g95
g628
g195
tp1496
Rp1497
(dp1498
bg45
(g120
((I1
S'1L'
p1499
I1
I1
tp1500
tp1501
Rp1502
(dp1503
g126
I53
sbg48
g1069
g298
g594
g1049
tp1504
Rp1505
(dp1506
bg45
(g120
((I1
S'1L'
p1507
I1
I1
tp1508
tp1509
Rp1510
(dp1511
g126
I53
sbg48
g411
g298
g594
g318
tp1512
Rp1513
(dp1514
bg45
(g120
((I1
S'1L'
p1515
I1
I1
tp1516
tp1517
Rp1518
(dp1519
g126
I53
sbg48
g1185
g58
g628
g1165
tp1520
Rp1521
(dp1522
bg45
(g120
((I1
S'1L'
p1523
I1
I1
tp1524
tp1525
Rp1526
(dp1527
g126
I53
sbg48
g151
g58
g628
g189
tp1528
Rp1529
(dp1530
btp1531
Rp1532
(dp1533
bag11
(g45
(g120
((I1
S'1L'
p1534
I0
I1
tp1535
tp1536
Rp1537
(dp1538
g126
I53
sbg12
(S'G_{yfL}'
p1539
tp1540
Rp1541
(dp1542
g17
g2
(g18
g19
(dp1543
g51
Nsg32
I01
sg23
Nsg24
Nsg34
Nsg35
Nsg36
Nsg25
Nsg33
Nsg37
Nsg38
Nsg27
Nsg26
Nsg39
Nsg22
Nstp1544
Rp1545
(dp1546
g43
(dp1547
sbsbtp1548
Rp1549
(dp1550
bg45
(g120
((I1
S'1L'
p1551
I0
I1
tp1552
tp1553
Rp1554
(dp1555
g126
I53
sbg12
(S'G_{yfR}'
p1556
tp1557
Rp1558
(dp1559
g17
g2
(g18
g19
(dp1560
g51
Nsg32
I01
sg23
Nsg24
Nsg34
Nsg35
Nsg36
Nsg25
Nsg33
Nsg37
Nsg38
Nsg27
Nsg26
Nsg39
Nsg22
Nstp1561
Rp1562
(dp1563
g43
(dp1564
sbsbtp1565
Rp1566
(dp1567
bg45
(g120
((I1
S'1L'
p1568
I0
I1
tp1569
tp1570
Rp1571
(dp1572
g126
I53
sbg12
(S'G_{yhL}'
p1573
tp1574
Rp1575
(dp1576
g17
g2
(g18
g19
(dp1577
g51
Nsg32
I01
sg23
Nsg24
Nsg34
Nsg35
Nsg36
Nsg25
Nsg33
Nsg37
Nsg38
Nsg27
Nsg26
Nsg39
Nsg22
Nstp1578
Rp1579
(dp1580
g43
(dp1581
sbsbtp1582
Rp1583
(dp1584
bg45
(g120
((I1
S'1L'
p1585
I0
I1
tp1586
tp1587
Rp1588
(dp1589
g126
I53
sbg12
(S'G_{yhR}'
p1590
tp1591
Rp1592
(dp1593
g17
g2
(g18
g19
(dp1594
g51
Nsg32
I01
sg23
Nsg24
Nsg34
Nsg35
Nsg36
Nsg25
Nsg33
Nsg37
Nsg38
Nsg27
Nsg26
Nsg39
Nsg22
Nstp1595
Rp1596
(dp1597
g43
(dp1598
sbsbtp1599
Rp1600
(dp1601
bg45
(g120
((I0
S'1L'
p1602
I0
I1
tp1603
tp1604
Rp1605
(dp1606
g126
I53
sbg12
(S'\\ddot{y}'
p1607
tp1608
Rp1609
(dp1610
g17
g2
(g18
g19
(dp1611
g51
Nsg32
I01
sg23
Nsg24
Nsg34
Nsg35
Nsg36
Nsg25
Nsg33
Nsg37
Nsg38
Nsg27
Nsg26
Nsg39
Nsg22
Nstp1612
Rp1613
(dp1614
g43
(dp1615
sbsbg560
tp1616
Rp1617
(dp1618
bg45
(g120
((I0
S'1L'
p1619
I0
I1
tp1620
tp1621
Rp1622
(dp1623
g126
I53
sbg12
(S'g'
p1624
tp1625
Rp1626
(dp1627
g17
g2
(g18
g19
(dp1628
g51
Nsg32
I01
sg23
Nsg24
Nsg34
Nsg35
Nsg36
Nsg25
Nsg33
Nsg37
Nsg38
Nsg27
Nsg26
Nsg39
Nsg22
Nstp1629
Rp1630
(dp1631
g43
(dp1632
sbsbg560
tp1633
Rp1634
(dp1635
bg45
(g120
((I0
S'1L'
p1636
I1
I1
tp1637
tp1638
Rp1639
(dp1640
g126
I53
sbg1609
g577
tp1641
Rp1642
(dp1643
bg45
(g120
((I0
S'1L'
p1644
I1
I1
tp1645
tp1646
Rp1647
(dp1648
g126
I53
sbg1609
g594
tp1649
Rp1650
(dp1651
bg45
(g120
((I0
S'1L'
p1652
I1
I1
tp1653
tp1654
Rp1655
(dp1656
g126
I53
sbg1609
g611
tp1657
Rp1658
(dp1659
bg45
(g120
((I0
S'1L'
p1660
I1
I1
tp1661
tp1662
Rp1663
(dp1664
g126
I53
sbg1609
g628
tp1665
Rp1666
(dp1667
bg45
(g120
((I0
S'1L'
p1668
I1
I1
tp1669
tp1670
Rp1671
(dp1672
g126
I53
sbg1626
g577
tp1673
Rp1674
(dp1675
bg45
(g120
((I0
S'1L'
p1676
I1
I1
tp1677
tp1678
Rp1679
(dp1680
g126
I53
sbg1626
g594
tp1681
Rp1682
(dp1683
bg45
(g120
((I0
S'1L'
p1684
I1
I1
tp1685
tp1686
Rp1687
(dp1688
g126
I53
sbg1626
g611
tp1689
Rp1690
(dp1691
bg45
(g120
((I0
S'1L'
p1692
I1
I1
tp1693
tp1694
Rp1695
(dp1696
g126
I53
sbg1626
g628
tp1697
Rp1698
(dp1699
bg45
(g120
((I0
S'1L'
p1700
I-1
I1
tp1701
tp1702
Rp1703
(dp1704
g126
I53
sbg645
g298
g577
g1049
tp1705
Rp1706
(dp1707
bg45
(g120
((I0
S'1L'
p1708
I-1
I1
tp1709
tp1710
Rp1711
(dp1712
g126
I53
sbg645
g298
g577
g318
tp1713
Rp1714
(dp1715
bg45
(g120
((I0
S'1L'
p1716
I-1
I1
tp1717
tp1718
Rp1719
(dp1720
g126
I53
sbg645
g325
g594
g1099
tp1721
Rp1722
(dp1723
bg45
(g120
((I0
S'1L'
p1724
I-1
I1
tp1725
tp1726
Rp1727
(dp1728
g126
I53
sbg645
g325
g594
g345
tp1729
Rp1730
(dp1731
bg45
(g120
((I0
S'1L'
p1732
I-1
I1
tp1733
tp1734
Rp1735
(dp1736
g126
I53
sbg645
g58
g611
g1165
tp1737
Rp1738
(dp1739
bg45
(g120
((I0
S'1L'
p1740
I-1
I1
tp1741
tp1742
Rp1743
(dp1744
g126
I53
sbg645
g58
g611
g189
tp1745
Rp1746
(dp1747
bg45
(g120
((I0
S'1L'
p1748
I-1
I1
tp1749
tp1750
Rp1751
(dp1752
g126
I53
sbg645
g95
g628
g1215
tp1753
Rp1754
(dp1755
bg45
(g120
((I0
S'1L'
p1756
I-1
I1
tp1757
tp1758
Rp1759
(dp1760
g126
I53
sbg645
g95
g628
g195
tp1761
Rp1762
(dp1763
bg45
(g120
((I0
S'1L'
p1764
I-1
I1
tp1765
tp1766
Rp1767
(dp1768
g126
I53
sbg778
g298
g577
g1049
tp1769
Rp1770
(dp1771
bg45
(g120
((I0
S'1L'
p1772
I-1
I1
tp1773
tp1774
Rp1775
(dp1776
g126
I53
sbg778
g325
g594
g1099
tp1777
Rp1778
(dp1779
bg45
(g120
((I0
S'1L'
p1780
I-1
I1
tp1781
tp1782
Rp1783
(dp1784
g126
I53
sbg803
g298
g577
g318
tp1785
Rp1786
(dp1787
bg45
(g120
((I0
S'1L'
p1788
I-1
I1
tp1789
tp1790
Rp1791
(dp1792
g126
I53
sbg803
g325
g594
g345
tp1793
Rp1794
(dp1795
bg45
(g120
((I0
S'1L'
p1796
I-1
I1
tp1797
tp1798
Rp1799
(dp1800
g126
I53
sbg828
g325
g594
g1099
tp1801
Rp1802
(dp1803
bg45
(g120
((I0
S'1L'
p1804
I-1
I1
tp1805
tp1806
Rp1807
(dp1808
g126
I53
sbg845
g325
g594
g345
tp1809
Rp1810
(dp1811
bg45
(g120
((I0
S'1L'
p1812
I-1
I1
tp1813
tp1814
Rp1815
(dp1816
g126
I53
sbg862
g58
g611
g1165
tp1817
Rp1818
(dp1819
bg45
(g120
((I0
S'1L'
p1820
I-1
I1
tp1821
tp1822
Rp1823
(dp1824
g126
I53
sbg862
g95
g628
g1215
tp1825
Rp1826
(dp1827
bg45
(g120
((I0
S'1L'
p1828
I-1
I1
tp1829
tp1830
Rp1831
(dp1832
g126
I53
sbg887
g58
g611
g189
tp1833
Rp1834
(dp1835
bg45
(g120
((I0
S'1L'
p1836
I-1
I1
tp1837
tp1838
Rp1839
(dp1840
g126
I53
sbg887
g95
g628
g195
tp1841
Rp1842
(dp1843
bg45
(g120
((I0
S'1L'
p1844
I-1
I1
tp1845
tp1846
Rp1847
(dp1848
g126
I53
sbg912
g95
g628
g1215
tp1849
Rp1850
(dp1851
bg45
(g120
((I0
S'1L'
p1852
I-1
I1
tp1853
tp1854
Rp1855
(dp1856
g126
I53
sbg929
g95
g628
g195
tp1857
Rp1858
(dp1859
bg45
(g120
((I0
S'1L'
p1860
I-1
I1
tp1861
tp1862
Rp1863
(dp1864
g126
I53
sbg298
g577
g1030
g665
tp1865
Rp1866
(dp1867
bg45
(g120
((I0
S'1L'
p1868
I-1
I1
tp1869
tp1870
Rp1871
(dp1872
g126
I53
sbg298
g577
g1030
g362
tp1873
Rp1874
(dp1875
bg45
(g120
((I0
S'1L'
p1876
I-1
I1
tp1877
tp1878
Rp1879
(dp1880
g126
I53
sbg298
g577
g1077
g665
tp1881
Rp1882
(dp1883
bg45
(g120
((I0
S'1L'
p1884
I-1
I1
tp1885
tp1886
Rp1887
(dp1888
g126
I53
sbg298
g577
g1088
g362
tp1889
Rp1890
(dp1891
bg45
(g120
((I0
S'1L'
p1892
I-1
I1
tp1893
tp1894
Rp1895
(dp1896
g126
I53
sbg325
g594
g1030
g696
tp1897
Rp1898
(dp1899
bg45
(g120
((I0
S'1L'
p1900
I-1
I1
tp1901
tp1902
Rp1903
(dp1904
g126
I53
sbg325
g594
g1030
g368
tp1905
Rp1906
(dp1907
bg45
(g120
((I0
S'1L'
p1908
I-1
I1
tp1909
tp1910
Rp1911
(dp1912
g126
I53
sbg325
g594
g1077
g696
tp1913
Rp1914
(dp1915
bg45
(g120
((I0
S'1L'
p1916
I-1
I1
tp1917
tp1918
Rp1919
(dp1920
g126
I53
sbg325
g594
g1088
g368
tp1921
Rp1922
(dp1923
bg45
(g120
((I0
S'1L'
p1924
I-1
I1
tp1925
tp1926
Rp1927
(dp1928
g126
I53
sbg325
g594
g1143
g696
tp1929
Rp1930
(dp1931
bg45
(g120
((I0
S'1L'
p1932
I-1
I1
tp1933
tp1934
Rp1935
(dp1936
g126
I53
sbg325
g594
g1154
g368
tp1937
Rp1938
(dp1939
bg45
(g120
((I0
S'1L'
p1940
I-1
I1
tp1941
tp1942
Rp1943
(dp1944
g126
I53
sbg58
g611
g1030
g727
tp1945
Rp1946
(dp1947
bg45
(g120
((I0
S'1L'
p1948
I-1
I1
tp1949
tp1950
Rp1951
(dp1952
g126
I53
sbg58
g611
g1030
g88
tp1953
Rp1954
(dp1955
bg45
(g120
((I0
S'1L'
p1956
I-1
I1
tp1957
tp1958
Rp1959
(dp1960
g126
I53
sbg58
g611
g1193
g727
tp1961
Rp1962
(dp1963
bg45
(g120
((I0
S'1L'
p1964
I-1
I1
tp1965
tp1966
Rp1967
(dp1968
g126
I53
sbg58
g611
g1204
g88
tp1969
Rp1970
(dp1971
bg45
(g120
((I0
S'1L'
p1972
I-1
I1
tp1973
tp1974
Rp1975
(dp1976
g126
I53
sbg95
g628
g1030
g758
tp1977
Rp1978
(dp1979
bg45
(g120
((I0
S'1L'
p1980
I-1
I1
tp1981
tp1982
Rp1983
(dp1984
g126
I53
sbg95
g628
g1030
g115
tp1985
Rp1986
(dp1987
bg45
(g120
((I0
S'1L'
p1988
I-1
I1
tp1989
tp1990
Rp1991
(dp1992
g126
I53
sbg95
g628
g1193
g758
tp1993
Rp1994
(dp1995
bg45
(g120
((I0
S'1L'
p1996
I-1
I1
tp1997
tp1998
Rp1999
(dp2000
g126
I53
sbg95
g628
g1204
g115
tp2001
Rp2002
(dp2003
bg45
(g120
((I0
S'1L'
p2004
I-1
I1
tp2005
tp2006
Rp2007
(dp2008
g126
I53
sbg95
g628
g1259
g758
tp2009
Rp2010
(dp2011
bg45
(g120
((I0
S'1L'
p2012
I-1
I1
tp2013
tp2014
Rp2015
(dp2016
g126
I53
sbg95
g628
g1270
g115
tp2017
Rp2018
(dp2019
bg45
(g120
((I0
S'1L'
p2020
I0
I1
tp2021
tp2022
Rp2023
(dp2024
g126
I53
sbg645
g129
g577
g206
tp2025
Rp2026
(dp2027
bg45
(g120
((I0
S'1L'
p2028
I0
I1
tp2029
tp2030
Rp2031
(dp2032
g126
I53
sbg645
g129
g594
g206
tp2033
Rp2034
(dp2035
bg45
(g120
((I0
S'1L'
p2036
I0
I1
tp2037
tp2038
Rp2039
(dp2040
g126
I53
sbg645
g298
g594
g1049
tp2041
Rp2042
(dp2043
bg45
(g120
((I0
S'1L'
p2044
I0
I1
tp2045
tp2046
Rp2047
(dp2048
g126
I53
sbg645
g298
g594
g318
tp2049
Rp2050
(dp2051
bg45
(g120
((I0
S'1L'
p2052
I0
I1
tp2053
tp2054
Rp2055
(dp2056
g126
I53
sbg645
g58
g628
g1165
tp2057
Rp2058
(dp2059
bg45
(g120
((I0
S'1L'
p2060
I0
I1
tp2061
tp2062
Rp2063
(dp2064
g126
I53
sbg645
g58
g628
g189
tp2065
Rp2066
(dp2067
bg45
(g120
((I0
S'1L'
p2068
I0
I1
tp2069
tp2070
Rp2071
(dp2072
g126
I53
sbg778
g298
g594
g1049
tp2073
Rp2074
(dp2075
bg45
(g120
((I0
S'1L'
p2076
I0
I1
tp2077
tp2078
Rp2079
(dp2080
g126
I53
sbg803
g298
g594
g318
tp2081
Rp2082
(dp2083
bg45
(g120
((I0
S'1L'
p2084
I0
I1
tp2085
tp2086
Rp2087
(dp2088
g126
I53
sbg862
g58
g628
g1165
tp2089
Rp2090
(dp2091
bg45
(g120
((I0
S'1L'
p2092
I0
I1
tp2093
tp2094
Rp2095
(dp2096
g126
I53
sbg887
g58
g628
g189
tp2097
Rp2098
(dp2099
bg45
(g120
((I0
S'1L'
p2100
I0
I1
tp2101
tp2102
Rp2103
(dp2104
g126
I53
sbg129
g611
g1030
g138
tp2105
Rp2106
(dp2107
bg45
(g120
((I0
S'1L'
p2108
I0
I1
tp2109
tp2110
Rp2111
(dp2112
g126
I53
sbg129
g628
g1030
g138
tp2113
Rp2114
(dp2115
bg45
(g120
((I0
S'1L'
p2116
I0
I1
tp2117
tp2118
Rp2119
(dp2120
g126
I53
sbg298
g594
g1030
g665
tp2121
Rp2122
(dp2123
bg45
(g120
((I0
S'1L'
p2124
I0
I1
tp2125
tp2126
Rp2127
(dp2128
g126
I53
sbg298
g594
g1030
g362
tp2129
Rp2130
(dp2131
bg45
(g120
((I0
S'1L'
p2132
I0
I1
tp2133
tp2134
Rp2135
(dp2136
g126
I53
sbg298
g594
g1077
g665
tp2137
Rp2138
(dp2139
bg45
(g120
((I0
S'1L'
p2140
I0
I1
tp2141
tp2142
Rp2143
(dp2144
g126
I53
sbg298
g594
g1088
g362
tp2145
Rp2146
(dp2147
bg45
(g120
((I0
S'1L'
p2148
I0
I1
tp2149
tp2150
Rp2151
(dp2152
g126
I53
sbg58
g628
g1030
g727
tp2153
Rp2154
(dp2155
bg45
(g120
((I0
S'1L'
p2156
I0
I1
tp2157
tp2158
Rp2159
(dp2160
g126
I53
sbg58
g628
g1030
g88
tp2161
Rp2162
(dp2163
bg45
(g120
((I0
S'1L'
p2164
I0
I1
tp2165
tp2166
Rp2167
(dp2168
g126
I53
sbg58
g628
g1193
g727
tp2169
Rp2170
(dp2171
bg45
(g120
((I0
S'1L'
p2172
I0
I1
tp2173
tp2174
Rp2175
(dp2176
g126
I53
sbg58
g628
g1204
g88
tp2177
Rp2178
(dp2179
bg45
(g120
((I1
S'1L'
p2180
I0
I1
tp2181
tp2182
Rp2183
(dp2184
g126
I53
sbg645
g129
g611
g206
tp2185
Rp2186
(dp2187
bg45
(g120
((I1
S'1L'
p2188
I0
I1
tp2189
tp2190
Rp2191
(dp2192
g126
I53
sbg645
g129
g628
g206
tp2193
Rp2194
(dp2195
bg45
(g120
((I1
S'1L'
p2196
I0
I1
tp2197
tp2198
Rp2199
(dp2200
g126
I53
sbg129
g577
g1030
g138
tp2201
Rp2202
(dp2203
bg45
(g120
((I1
S'1L'
p2204
I0
I1
tp2205
tp2206
Rp2207
(dp2208
g126
I53
sbg129
g594
g1030
g138
tp2209
Rp2210
(dp2211
bg45
(g120
((I0
S'1L'
p2212
I0
I1
tp2213
tp2214
Rp2215
(dp2216
g126
I53
sbg48
g1069
g298
g577
g665
tp2217
Rp2218
(dp2219
bg45
(g120
((I0
S'1L'
p2220
I0
I1
tp2221
tp2222
Rp2223
(dp2224
g126
I53
sbg48
g1069
g325
g594
g696
tp2225
Rp2226
(dp2227
bg45
(g120
((I0
S'1L'
p2228
I0
I1
tp2229
tp2230
Rp2231
(dp2232
g126
I53
sbg48
g411
g298
g577
g362
tp2233
Rp2234
(dp2235
bg45
(g120
((I0
S'1L'
p2236
I0
I1
tp2237
tp2238
Rp2239
(dp2240
g126
I53
sbg48
g411
g325
g594
g368
tp2241
Rp2242
(dp2243
bg45
(g120
((I0
S'1L'
p2244
I0
I1
tp2245
tp2246
Rp2247
(dp2248
g126
I53
sbg48
g1135
g325
g594
g696
tp2249
Rp2250
(dp2251
bg45
(g120
((I0
S'1L'
p2252
I0
I1
tp2253
tp2254
Rp2255
(dp2256
g126
I53
sbg48
g426
g325
g594
g368
tp2257
Rp2258
(dp2259
bg45
(g120
((I0
S'1L'
p2260
I0
I1
tp2261
tp2262
Rp2263
(dp2264
g126
I53
sbg48
g1185
g58
g611
g727
tp2265
Rp2266
(dp2267
bg45
(g120
((I0
S'1L'
p2268
I0
I1
tp2269
tp2270
Rp2271
(dp2272
g126
I53
sbg48
g1185
g95
g628
g758
tp2273
Rp2274
(dp2275
bg45
(g120
((I0
S'1L'
p2276
I0
I1
tp2277
tp2278
Rp2279
(dp2280
g126
I53
sbg48
g151
g58
g611
g88
tp2281
Rp2282
(dp2283
bg45
(g120
((I0
S'1L'
p2284
I0
I1
tp2285
tp2286
Rp2287
(dp2288
g126
I53
sbg48
g151
g95
g628
g115
tp2289
Rp2290
(dp2291
bg45
(g120
((I0
S'1L'
p2292
I0
I1
tp2293
tp2294
Rp2295
(dp2296
g126
I53
sbg48
g1251
g95
g628
g758
tp2297
Rp2298
(dp2299
bg45
(g120
((I0
S'1L'
p2300
I0
I1
tp2301
tp2302
Rp2303
(dp2304
g126
I53
sbg48
g166
g95
g628
g115
tp2305
Rp2306
(dp2307
bg45
(g120
((I0
S'1L'
p2308
I0
I1
tp2309
tp2310
Rp2311
(dp2312
g126
I53
sbg1069
g1135
g325
g594
g696
tp2313
Rp2314
(dp2315
bg45
(g120
((I0
S'1L'
p2316
I0
I1
tp2317
tp2318
Rp2319
(dp2320
g126
I53
sbg411
g426
g325
g594
g368
tp2321
Rp2322
(dp2323
bg45
(g120
((I0
S'1L'
p2324
I0
I1
tp2325
tp2326
Rp2327
(dp2328
g126
I53
sbg1185
g1251
g95
g628
g758
tp2329
Rp2330
(dp2331
bg45
(g120
((I0
S'1L'
p2332
I0
I1
tp2333
tp2334
Rp2335
(dp2336
g126
I53
sbg151
g166
g95
g628
g115
tp2337
Rp2338
(dp2339
bg45
(g120
((I0
S'1L'
p2340
I1
I1
tp2341
tp2342
Rp2343
(dp2344
g126
I53
sbg48
g1069
g298
g594
g665
tp2345
Rp2346
(dp2347
bg45
(g120
((I0
S'1L'
p2348
I1
I1
tp2349
tp2350
Rp2351
(dp2352
g126
I53
sbg48
g411
g298
g594
g362
tp2353
Rp2354
(dp2355
bg45
(g120
((I0
S'1L'
p2356
I1
I1
tp2357
tp2358
Rp2359
(dp2360
g126
I53
sbg48
g1185
g58
g628
g727
tp2361
Rp2362
(dp2363
bg45
(g120
((I0
S'1L'
p2364
I1
I1
tp2365
tp2366
Rp2367
(dp2368
g126
I53
sbg48
g151
g58
g628
g88
tp2369
Rp2370
(dp2371
btp2372
Rp2373
(dp2374
bag11
(g45
(g120
((I0
S'1L'
p2375
I0
I1
tp2376
tp2377
Rp2378
(dp2379
g126
I53
sbg12
(S'In_{b}'
p2380
tp2381
Rp2382
(dp2383
g17
g2
(g18
g19
(dp2384
g51
Nsg32
I01
sg23
Nsg24
Nsg34
Nsg35
Nsg36
Nsg33
Nsg37
Nsg27
Nsg26
Nsg39
Nstp2385
Rp2386
(dp2387
g43
(dp2388
sbsbg645
tp2389
Rp2390
(dp2391
bg45
(g120
((I0
S'1L'
p2392
I0
I1
tp2393
tp2394
Rp2395
(dp2396
g126
I53
sbg12
(S'In_{f1}'
p2397
tp2398
Rp2399
(dp2400
g17
g2
(g18
g19
(dp2401
g51
Nsg32
I01
sg23
Nsg24
Nsg34
Nsg35
Nsg36
Nsg33
Nsg37
Nsg27
Nsg26
Nsg39
Nstp2402
Rp2403
(dp2404
g43
(dp2405
sbsbg778
tp2406
Rp2407
(dp2408
bg45
(g120
((I0
S'1L'
p2409
I0
I1
tp2410
tp2411
Rp2412
(dp2413
g126
I53
sbg2399
g803
tp2414
Rp2415
(dp2416
bg45
(g120
((I0
S'1L'
p2417
I0
I1
tp2418
tp2419
Rp2420
(dp2421
g126
I53
sbg12
(S'In_{f2}'
p2422
tp2423
Rp2424
(dp2425
g17
g2
(g18
g19
(dp2426
g51
Nsg32
I01
sg23
Nsg24
Nsg34
Nsg35
Nsg36
Nsg33
Nsg37
Nsg27
Nsg26
Nsg39
Nstp2427
Rp2428
(dp2429
g43
(dp2430
sbsbg778
tp2431
Rp2432
(dp2433
bg45
(g120
((I0
S'1L'
p2434
I0
I1
tp2435
tp2436
Rp2437
(dp2438
g126
I53
sbg2424
g803
tp2439
Rp2440
(dp2441
bg45
(g120
((I0
S'1L'
p2442
I0
I1
tp2443
tp2444
Rp2445
(dp2446
g126
I53
sbg2424
g828
tp2447
Rp2448
(dp2449
bg45
(g120
((I0
S'1L'
p2450
I0
I1
tp2451
tp2452
Rp2453
(dp2454
g126
I53
sbg2424
g845
tp2455
Rp2456
(dp2457
bg45
(g120
((I0
S'1L'
p2458
I0
I1
tp2459
tp2460
Rp2461
(dp2462
g126
I53
sbg12
(S'In_{h1}'
p2463
tp2464
Rp2465
(dp2466
g17
g2
(g18
g19
(dp2467
g51
Nsg32
I01
sg23
Nsg24
Nsg34
Nsg35
Nsg36
Nsg33
Nsg37
Nsg27
Nsg26
Nsg39
Nstp2468
Rp2469
(dp2470
g43
(dp2471
sbsbg862
tp2472
Rp2473
(dp2474
bg45
(g120
((I0
S'1L'
p2475
I0
I1
tp2476
tp2477
Rp2478
(dp2479
g126
I53
sbg2465
g887
tp2480
Rp2481
(dp2482
bg45
(g120
((I0
S'1L'
p2483
I0
I1
tp2484
tp2485
Rp2486
(dp2487
g126
I53
sbg12
(S'In_{h2}'
p2488
tp2489
Rp2490
(dp2491
g17
g2
(g18
g19
(dp2492
g51
Nsg32
I01
sg23
Nsg24
Nsg34
Nsg35
Nsg36
Nsg33
Nsg37
Nsg27
Nsg26
Nsg39
Nstp2493
Rp2494
(dp2495
g43
(dp2496
sbsbg862
tp2497
Rp2498
(dp2499
bg45
(g120
((I0
S'1L'
p2500
I0
I1
tp2501
tp2502
Rp2503
(dp2504
g126
I53
sbg2490
g887
tp2505
Rp2506
(dp2507
bg45
(g120
((I0
S'1L'
p2508
I0
I1
tp2509
tp2510
Rp2511
(dp2512
g126
I53
sbg2490
g912
tp2513
Rp2514
(dp2515
bg45
(g120
((I0
S'1L'
p2516
I0
I1
tp2517
tp2518
Rp2519
(dp2520
g126
I53
sbg2490
g929
tp2521
Rp2522
(dp2523
bg45
(g120
((I0
S'1L'
p2524
I1
I1
tp2525
tp2526
Rp2527
(dp2528
g126
I53
sbg2399
g645
tp2529
Rp2530
(dp2531
bg45
(g120
((I0
S'1L'
p2532
I1
I1
tp2533
tp2534
Rp2535
(dp2536
g126
I53
sbg2424
g645
tp2537
Rp2538
(dp2539
bg45
(g120
((I0
S'1L'
p2540
I1
I1
tp2541
tp2542
Rp2543
(dp2544
g126
I53
sbg2465
g645
tp2545
Rp2546
(dp2547
bg45
(g120
((I0
S'1L'
p2548
I1
I1
tp2549
tp2550
Rp2551
(dp2552
g126
I53
sbg2490
g645
tp2553
Rp2554
(dp2555
bg45
(g120
((I0
S'1L'
p2556
I-2
I1
tp2557
tp2558
Rp2559
(dp2560
g126
I53
sbg778
g577
g1024
(g298
g1027
tp2561
Rp2562
(dp2563
btp2564
Rp2565
(dp2566
bg45
(g120
((I0
S'1L'
p2567
I-2
I1
tp2568
tp2569
Rp2570
(dp2571
g126
I53
sbg778
g594
g1024
(g325
g1027
tp2572
Rp2573
(dp2574
btp2575
Rp2576
(dp2577
bg45
(g120
((I0
S'1L'
p2578
I-2
I1
tp2579
tp2580
Rp2581
(dp2582
g126
I53
sbg803
g577
g2562
tp2583
Rp2584
(dp2585
bg45
(g120
((I0
S'1L'
p2586
I-2
I1
tp2587
tp2588
Rp2589
(dp2590
g126
I53
sbg803
g594
g2573
tp2591
Rp2592
(dp2593
bg45
(g120
((I0
S'1L'
p2594
I-2
I1
tp2595
tp2596
Rp2597
(dp2598
g126
I53
sbg828
g594
g2573
tp2599
Rp2600
(dp2601
bg45
(g120
((I0
S'1L'
p2602
I-2
I1
tp2603
tp2604
Rp2605
(dp2606
g126
I53
sbg845
g594
g2573
tp2607
Rp2608
(dp2609
bg45
(g120
((I0
S'1L'
p2610
I-2
I1
tp2611
tp2612
Rp2613
(dp2614
g126
I53
sbg862
g611
g1024
(g58
g1027
tp2615
Rp2616
(dp2617
btp2618
Rp2619
(dp2620
bg45
(g120
((I0
S'1L'
p2621
I-2
I1
tp2622
tp2623
Rp2624
(dp2625
g126
I53
sbg862
g628
g1024
(g95
g1027
tp2626
Rp2627
(dp2628
btp2629
Rp2630
(dp2631
bg45
(g120
((I0
S'1L'
p2632
I-2
I1
tp2633
tp2634
Rp2635
(dp2636
g126
I53
sbg887
g611
g2616
tp2637
Rp2638
(dp2639
bg45
(g120
((I0
S'1L'
p2640
I-2
I1
tp2641
tp2642
Rp2643
(dp2644
g126
I53
sbg887
g628
g2627
tp2645
Rp2646
(dp2647
bg45
(g120
((I0
S'1L'
p2648
I-2
I1
tp2649
tp2650
Rp2651
(dp2652
g126
I53
sbg912
g628
g2627
tp2653
Rp2654
(dp2655
bg45
(g120
((I0
S'1L'
p2656
I-2
I1
tp2657
tp2658
Rp2659
(dp2660
g126
I53
sbg929
g628
g2627
tp2661
Rp2662
(dp2663
bg45
(g120
((I0
S'1L'
p2664
I-1
I1
tp2665
tp2666
Rp2667
(dp2668
g126
I53
sbg483
g129
g138
tp2669
Rp2670
(dp2671
bg45
(g120
((I0
S'1L'
p2672
I-1
I1
tp2673
tp2674
Rp2675
(dp2676
g126
I53
sbg500
g129
g138
tp2677
Rp2678
(dp2679
bg45
(g120
((I0
S'1L'
p2680
I-1
I1
tp2681
tp2682
Rp2683
(dp2684
g126
I53
sbg1575
g129
g206
tp2685
Rp2686
(dp2687
bg45
(g120
((I0
S'1L'
p2688
I-1
I1
tp2689
tp2690
Rp2691
(dp2692
g126
I53
sbg1592
g129
g206
tp2693
Rp2694
(dp2695
bg45
(g120
((I0
S'1L'
p2696
I-1
I1
tp2697
tp2698
Rp2699
(dp2700
g126
I53
sbg645
g577
g1024
(g129
g1027
tp2701
Rp2702
(dp2703
btp2704
Rp2705
(dp2706
bg45
(g120
((I0
S'1L'
p2707
I-1
I1
tp2708
tp2709
Rp2710
(dp2711
g126
I53
sbg645
g577
g2562
tp2712
Rp2713
(dp2714
bg45
(g120
((I0
S'1L'
p2715
I-1
I1
tp2716
tp2717
Rp2718
(dp2719
g126
I53
sbg645
g594
g2702
tp2720
Rp2721
(dp2722
bg45
(g120
((I0
S'1L'
p2723
I-1
I1
tp2724
tp2725
Rp2726
(dp2727
g126
I53
sbg645
g594
g2573
tp2728
Rp2729
(dp2730
bg45
(g120
((I0
S'1L'
p2731
I-1
I1
tp2732
tp2733
Rp2734
(dp2735
g126
I53
sbg645
g611
g2702
tp2736
Rp2737
(dp2738
bg45
(g120
((I0
S'1L'
p2739
I-1
I1
tp2740
tp2741
Rp2742
(dp2743
g126
I53
sbg645
g611
g2616
tp2744
Rp2745
(dp2746
bg45
(g120
((I0
S'1L'
p2747
I-1
I1
tp2748
tp2749
Rp2750
(dp2751
g126
I53
sbg645
g628
g2702
tp2752
Rp2753
(dp2754
bg45
(g120
((I0
S'1L'
p2755
I-1
I1
tp2756
tp2757
Rp2758
(dp2759
g126
I53
sbg645
g628
g2627
tp2760
Rp2761
(dp2762
bg45
(g120
((I0
S'1L'
p2763
I0
I1
tp2764
tp2765
Rp2766
(dp2767
g126
I53
sbg778
g594
g2562
tp2768
Rp2769
(dp2770
bg45
(g120
((I0
S'1L'
p2771
I0
I1
tp2772
tp2773
Rp2774
(dp2775
g126
I53
sbg803
g594
g2562
tp2776
Rp2777
(dp2778
bg45
(g120
((I0
S'1L'
p2779
I0
I1
tp2780
tp2781
Rp2782
(dp2783
g126
I53
sbg862
g628
g2616
tp2784
Rp2785
(dp2786
bg45
(g120
((I0
S'1L'
p2787
I0
I1
tp2788
tp2789
Rp2790
(dp2791
g126
I53
sbg887
g628
g2616
tp2792
Rp2793
(dp2794
bg45
(g120
((I0
S'1L'
p2795
I1
I1
tp2796
tp2797
Rp2798
(dp2799
g126
I53
sbg645
g594
g2562
tp2800
Rp2801
(dp2802
bg45
(g120
((I0
S'1L'
p2803
I1
I1
tp2804
tp2805
Rp2806
(dp2807
g126
I53
sbg645
g628
g2616
tp2808
Rp2809
(dp2810
bg45
(g120
((I1
S'1L'
p2811
I-1
I1
tp2812
tp2813
Rp2814
(dp2815
g126
I53
sbg483
g325
g65
(g685
tp2816
Rp2817
(dp2818
btp2819
Rp2820
(dp2821
bg45
(g120
((I1
S'1L'
p2822
I-1
I1
tp2823
tp2824
Rp2825
(dp2826
g126
I53
sbg483
g325
g696
tp2827
Rp2828
(dp2829
bg45
(g120
((I1
S'1L'
p2830
I-1
I1
tp2831
tp2832
Rp2833
(dp2834
g126
I53
sbg500
g325
g65
(g334
tp2835
Rp2836
(dp2837
btp2838
Rp2839
(dp2840
bg45
(g120
((I1
S'1L'
p2841
I-1
I1
tp2842
tp2843
Rp2844
(dp2845
g126
I53
sbg500
g325
g368
tp2846
Rp2847
(dp2848
bg45
(g120
((I1
S'1L'
p2849
I-1
I1
tp2850
tp2851
Rp2852
(dp2853
g126
I53
sbg517
g129
g138
tp2854
Rp2855
(dp2856
bg45
(g120
((I1
S'1L'
p2857
I-1
I1
tp2858
tp2859
Rp2860
(dp2861
g126
I53
sbg517
g95
g65
(g747
tp2862
Rp2863
(dp2864
btp2865
Rp2866
(dp2867
bg45
(g120
((I1
S'1L'
p2868
I-1
I1
tp2869
tp2870
Rp2871
(dp2872
g126
I53
sbg517
g95
g758
tp2873
Rp2874
(dp2875
bg45
(g120
((I1
S'1L'
p2876
I-1
I1
tp2877
tp2878
Rp2879
(dp2880
g126
I53
sbg534
g129
g138
tp2881
Rp2882
(dp2883
bg45
(g120
((I1
S'1L'
p2884
I-1
I1
tp2885
tp2886
Rp2887
(dp2888
g126
I53
sbg534
g95
g65
(g104
tp2889
Rp2890
(dp2891
btp2892
Rp2893
(dp2894
bg45
(g120
((I1
S'1L'
p2895
I-1
I1
tp2896
tp2897
Rp2898
(dp2899
g126
I53
sbg534
g95
g115
tp2900
Rp2901
(dp2902
bg45
(g120
((I1
S'1L'
p2903
I-1
I1
tp2904
tp2905
Rp2906
(dp2907
g126
I53
sbg1541
g129
g206
tp2908
Rp2909
(dp2910
bg45
(g120
((I1
S'1L'
p2911
I-1
I1
tp2912
tp2913
Rp2914
(dp2915
g126
I53
sbg1541
g325
g136
(g685
tp2916
Rp2917
(dp2918
btp2919
Rp2920
(dp2921
bg45
(g120
((I1
S'1L'
p2922
I-1
I1
tp2923
tp2924
Rp2925
(dp2926
g126
I53
sbg1541
g325
g1099
tp2927
Rp2928
(dp2929
bg45
(g120
((I1
S'1L'
p2930
I-1
I1
tp2931
tp2932
Rp2933
(dp2934
g126
I53
sbg1558
g129
g206
tp2935
Rp2936
(dp2937
bg45
(g120
((I1
S'1L'
p2938
I-1
I1
tp2939
tp2940
Rp2941
(dp2942
g126
I53
sbg1558
g325
g136
(g334
tp2943
Rp2944
(dp2945
btp2946
Rp2947
(dp2948
bg45
(g120
((I1
S'1L'
p2949
I-1
I1
tp2950
tp2951
Rp2952
(dp2953
g126
I53
sbg1558
g325
g345
tp2954
Rp2955
(dp2956
bg45
(g120
((I1
S'1L'
p2957
I-1
I1
tp2958
tp2959
Rp2960
(dp2961
g126
I53
sbg1575
g95
g136
(g747
tp2962
Rp2963
(dp2964
btp2965
Rp2966
(dp2967
bg45
(g120
((I1
S'1L'
p2968
I-1
I1
tp2969
tp2970
Rp2971
(dp2972
g126
I53
sbg1575
g95
g1215
tp2973
Rp2974
(dp2975
bg45
(g120
((I1
S'1L'
p2976
I-1
I1
tp2977
tp2978
Rp2979
(dp2980
g126
I53
sbg1592
g95
g136
(g104
tp2981
Rp2982
(dp2983
btp2984
Rp2985
(dp2986
bg45
(g120
((I1
S'1L'
p2987
I-1
I1
tp2988
tp2989
Rp2990
(dp2991
g126
I53
sbg1592
g95
g195
tp2992
Rp2993
(dp2994
bg45
(g120
((I1
S'1L'
p2995
I0
I1
tp2996
tp2997
Rp2998
(dp2999
g126
I53
sbg483
g298
g665
tp3000
Rp3001
(dp3002
bg45
(g120
((I1
S'1L'
p3003
I0
I1
tp3004
tp3005
Rp3006
(dp3007
g126
I53
sbg500
g298
g362
tp3008
Rp3009
(dp3010
bg45
(g120
((I1
S'1L'
p3011
I0
I1
tp3012
tp3013
Rp3014
(dp3015
g126
I53
sbg517
g58
g727
tp3016
Rp3017
(dp3018
bg45
(g120
((I1
S'1L'
p3019
I0
I1
tp3020
tp3021
Rp3022
(dp3023
g126
I53
sbg534
g58
g88
tp3024
Rp3025
(dp3026
bg45
(g120
((I1
S'1L'
p3027
I0
I1
tp3028
tp3029
Rp3030
(dp3031
g126
I53
sbg1541
g298
g1049
tp3032
Rp3033
(dp3034
bg45
(g120
((I1
S'1L'
p3035
I0
I1
tp3036
tp3037
Rp3038
(dp3039
g126
I53
sbg1558
g298
g318
tp3040
Rp3041
(dp3042
bg45
(g120
((I1
S'1L'
p3043
I0
I1
tp3044
tp3045
Rp3046
(dp3047
g126
I53
sbg1575
g58
g1165
tp3048
Rp3049
(dp3050
bg45
(g120
((I1
S'1L'
p3051
I0
I1
tp3052
tp3053
Rp3054
(dp3055
g126
I53
sbg1592
g58
g189
tp3056
Rp3057
(dp3058
bg45
(g120
((I0
S'1L'
p3059
I-1
I1
tp3060
tp3061
Rp3062
(dp3063
g126
I53
sbg551
g298
g577
g665
tp3064
Rp3065
(dp3066
bg45
(g120
((I0
S'1L'
p3067
I-1
I1
tp3068
tp3069
Rp3070
(dp3071
g126
I53
sbg551
g298
g577
g362
tp3072
Rp3073
(dp3074
bg45
(g120
((I0
S'1L'
p3075
I-1
I1
tp3076
tp3077
Rp3078
(dp3079
g126
I53
sbg551
g325
g594
g696
tp3080
Rp3081
(dp3082
bg45
(g120
((I0
S'1L'
p3083
I-1
I1
tp3084
tp3085
Rp3086
(dp3087
g126
I53
sbg551
g325
g594
g368
tp3088
Rp3089
(dp3090
bg45
(g120
((I0
S'1L'
p3091
I-1
I1
tp3092
tp3093
Rp3094
(dp3095
g126
I53
sbg551
g58
g611
g727
tp3096
Rp3097
(dp3098
bg45
(g120
((I0
S'1L'
p3099
I-1
I1
tp3100
tp3101
Rp3102
(dp3103
g126
I53
sbg551
g58
g611
g88
tp3104
Rp3105
(dp3106
bg45
(g120
((I0
S'1L'
p3107
I-1
I1
tp3108
tp3109
Rp3110
(dp3111
g126
I53
sbg551
g95
g628
g758
tp3112
Rp3113
(dp3114
bg45
(g120
((I0
S'1L'
p3115
I-1
I1
tp3116
tp3117
Rp3118
(dp3119
g126
I53
sbg551
g95
g628
g115
tp3120
Rp3121
(dp3122
bg45
(g120
((I0
S'1L'
p3123
I-1
I1
tp3124
tp3125
Rp3126
(dp3127
g126
I53
sbg1609
g298
g577
g1049
tp3128
Rp3129
(dp3130
bg45
(g120
((I0
S'1L'
p3131
I-1
I1
tp3132
tp3133
Rp3134
(dp3135
g126
I53
sbg1609
g298
g577
g318
tp3136
Rp3137
(dp3138
bg45
(g120
((I0
S'1L'
p3139
I-1
I1
tp3140
tp3141
Rp3142
(dp3143
g126
I53
sbg1609
g325
g594
g1099
tp3144
Rp3145
(dp3146
bg45
(g120
((I0
S'1L'
p3147
I-1
I1
tp3148
tp3149
Rp3150
(dp3151
g126
I53
sbg1609
g325
g594
g345
tp3152
Rp3153
(dp3154
bg45
(g120
((I0
S'1L'
p3155
I-1
I1
tp3156
tp3157
Rp3158
(dp3159
g126
I53
sbg1609
g58
g611
g1165
tp3160
Rp3161
(dp3162
bg45
(g120
((I0
S'1L'
p3163
I-1
I1
tp3164
tp3165
Rp3166
(dp3167
g126
I53
sbg1609
g58
g611
g189
tp3168
Rp3169
(dp3170
bg45
(g120
((I0
S'1L'
p3171
I-1
I1
tp3172
tp3173
Rp3174
(dp3175
g126
I53
sbg1609
g95
g628
g1215
tp3176
Rp3177
(dp3178
bg45
(g120
((I0
S'1L'
p3179
I-1
I1
tp3180
tp3181
Rp3182
(dp3183
g126
I53
sbg1609
g95
g628
g195
tp3184
Rp3185
(dp3186
bg45
(g120
((I0
S'1L'
p3187
I-1
I1
tp3188
tp3189
Rp3190
(dp3191
g126
I53
sbg1626
g298
g577
g1049
tp3192
Rp3193
(dp3194
bg45
(g120
((I0
S'1L'
p3195
I-1
I1
tp3196
tp3197
Rp3198
(dp3199
g126
I53
sbg1626
g298
g577
g318
tp3200
Rp3201
(dp3202
bg45
(g120
((I0
S'1L'
p3203
I-1
I1
tp3204
tp3205
Rp3206
(dp3207
g126
I53
sbg1626
g325
g594
g1099
tp3208
Rp3209
(dp3210
bg45
(g120
((I0
S'1L'
p3211
I-1
I1
tp3212
tp3213
Rp3214
(dp3215
g126
I53
sbg1626
g325
g594
g345
tp3216
Rp3217
(dp3218
bg45
(g120
((I0
S'1L'
p3219
I-1
I1
tp3220
tp3221
Rp3222
(dp3223
g126
I53
sbg1626
g58
g611
g1165
tp3224
Rp3225
(dp3226
bg45
(g120
((I0
S'1L'
p3227
I-1
I1
tp3228
tp3229
Rp3230
(dp3231
g126
I53
sbg1626
g58
g611
g189
tp3232
Rp3233
(dp3234
bg45
(g120
((I0
S'1L'
p3235
I-1
I1
tp3236
tp3237
Rp3238
(dp3239
g126
I53
sbg1626
g95
g628
g1215
tp3240
Rp3241
(dp3242
bg45
(g120
((I0
S'1L'
p3243
I-1
I1
tp3244
tp3245
Rp3246
(dp3247
g126
I53
sbg1626
g95
g628
g195
tp3248
Rp3249
(dp3250
bg45
(g120
((I0
S'1L'
p3251
I0
I1
tp3252
tp3253
Rp3254
(dp3255
g126
I53
sbg551
g129
g611
g138
tp3256
Rp3257
(dp3258
bg45
(g120
((I0
S'1L'
p3259
I0
I1
tp3260
tp3261
Rp3262
(dp3263
g126
I53
sbg551
g129
g628
g138
tp3264
Rp3265
(dp3266
bg45
(g120
((I0
S'1L'
p3267
I0
I1
tp3268
tp3269
Rp3270
(dp3271
g126
I53
sbg551
g298
g594
g665
tp3272
Rp3273
(dp3274
bg45
(g120
((I0
S'1L'
p3275
I0
I1
tp3276
tp3277
Rp3278
(dp3279
g126
I53
sbg551
g298
g594
g362
tp3280
Rp3281
(dp3282
bg45
(g120
((I0
S'1L'
p3283
I0
I1
tp3284
tp3285
Rp3286
(dp3287
g126
I53
sbg551
g58
g628
g727
tp3288
Rp3289
(dp3290
bg45
(g120
((I0
S'1L'
p3291
I0
I1
tp3292
tp3293
Rp3294
(dp3295
g126
I53
sbg551
g58
g628
g88
tp3296
Rp3297
(dp3298
bg45
(g120
((I0
S'1L'
p3299
I0
I1
tp3300
tp3301
Rp3302
(dp3303
g126
I53
sbg1609
g129
g577
g206
tp3304
Rp3305
(dp3306
bg45
(g120
((I0
S'1L'
p3307
I0
I1
tp3308
tp3309
Rp3310
(dp3311
g126
I53
sbg1609
g129
g594
g206
tp3312
Rp3313
(dp3314
bg45
(g120
((I0
S'1L'
p3315
I0
I1
tp3316
tp3317
Rp3318
(dp3319
g126
I53
sbg1609
g298
g594
g1049
tp3320
Rp3321
(dp3322
bg45
(g120
((I0
S'1L'
p3323
I0
I1
tp3324
tp3325
Rp3326
(dp3327
g126
I53
sbg1609
g298
g594
g318
tp3328
Rp3329
(dp3330
bg45
(g120
((I0
S'1L'
p3331
I0
I1
tp3332
tp3333
Rp3334
(dp3335
g126
I53
sbg1609
g58
g628
g1165
tp3336
Rp3337
(dp3338
bg45
(g120
((I0
S'1L'
p3339
I0
I1
tp3340
tp3341
Rp3342
(dp3343
g126
I53
sbg1609
g58
g628
g189
tp3344
Rp3345
(dp3346
bg45
(g120
((I0
S'1L'
p3347
I0
I1
tp3348
tp3349
Rp3350
(dp3351
g126
I53
sbg1626
g129
g577
g206
tp3352
Rp3353
(dp3354
bg45
(g120
((I0
S'1L'
p3355
I0
I1
tp3356
tp3357
Rp3358
(dp3359
g126
I53
sbg1626
g129
g594
g206
tp3360
Rp3361
(dp3362
bg45
(g120
((I0
S'1L'
p3363
I0
I1
tp3364
tp3365
Rp3366
(dp3367
g126
I53
sbg1626
g298
g594
g1049
tp3368
Rp3369
(dp3370
bg45
(g120
((I0
S'1L'
p3371
I0
I1
tp3372
tp3373
Rp3374
(dp3375
g126
I53
sbg1626
g298
g594
g318
tp3376
Rp3377
(dp3378
bg45
(g120
((I0
S'1L'
p3379
I0
I1
tp3380
tp3381
Rp3382
(dp3383
g126
I53
sbg1626
g58
g628
g1165
tp3384
Rp3385
(dp3386
bg45
(g120
((I0
S'1L'
p3387
I0
I1
tp3388
tp3389
Rp3390
(dp3391
g126
I53
sbg1626
g58
g628
g189
tp3392
Rp3393
(dp3394
bg45
(g120
((I1
S'1L'
p3395
I0
I1
tp3396
tp3397
Rp3398
(dp3399
g126
I53
sbg551
g129
g577
g138
tp3400
Rp3401
(dp3402
bg45
(g120
((I1
S'1L'
p3403
I0
I1
tp3404
tp3405
Rp3406
(dp3407
g126
I53
sbg551
g129
g594
g138
tp3408
Rp3409
(dp3410
bg45
(g120
((I1
S'1L'
p3411
I0
I1
tp3412
tp3413
Rp3414
(dp3415
g126
I53
sbg1609
g129
g611
g206
tp3416
Rp3417
(dp3418
bg45
(g120
((I1
S'1L'
p3419
I0
I1
tp3420
tp3421
Rp3422
(dp3423
g126
I53
sbg1609
g129
g628
g206
tp3424
Rp3425
(dp3426
bg45
(g120
((I1
S'1L'
p3427
I0
I1
tp3428
tp3429
Rp3430
(dp3431
g126
I53
sbg1626
g129
g611
g206
tp3432
Rp3433
(dp3434
bg45
(g120
((I1
S'1L'
p3435
I0
I1
tp3436
tp3437
Rp3438
(dp3439
g126
I53
sbg1626
g129
g628
g206
tp3440
Rp3441
(dp3442
bg45
(g120
((I0
S'1L'
p3443
I-2
I1
tp3444
tp3445
Rp3446
(dp3447
g126
I53
sbg778
g129
g298
g577
g136
(g654
tp3448
Rp3449
(dp3450
btp3451
Rp3452
(dp3453
bg45
(g120
((I0
S'1L'
p3454
I-2
I1
tp3455
tp3456
Rp3457
(dp3458
g126
I53
sbg778
g129
g325
g594
g136
(g11
(g654
g685
tp3459
Rp3460
(dp3461
btp3462
Rp3463
(dp3464
btp3465
Rp3466
(dp3467
bg45
(g120
((I0
S'1L'
p3468
I-2
I1
tp3469
tp3470
Rp3471
(dp3472
g126
I53
sbg803
g129
g298
g577
g136
(g307
tp3473
Rp3474
(dp3475
btp3476
Rp3477
(dp3478
bg45
(g120
((I0
S'1L'
p3479
I-2
I1
tp3480
tp3481
Rp3482
(dp3483
g126
I53
sbg803
g129
g325
g594
g136
(g11
(g307
g334
tp3484
Rp3485
(dp3486
btp3487
Rp3488
(dp3489
btp3490
Rp3491
(dp3492
bg45
(g120
((I0
S'1L'
p3493
I-2
I1
tp3494
tp3495
Rp3496
(dp3497
g126
I53
sbg828
g129
g325
g594
g3463
tp3498
Rp3499
(dp3500
bg45
(g120
((I0
S'1L'
p3501
I-2
I1
tp3502
tp3503
Rp3504
(dp3505
g126
I53
sbg845
g129
g325
g594
g3488
tp3506
Rp3507
(dp3508
bg45
(g120
((I0
S'1L'
p3509
I-2
I1
tp3510
tp3511
Rp3512
(dp3513
g126
I53
sbg129
g298
g577
g1077
g65
(g654
tp3514
Rp3515
(dp3516
btp3517
Rp3518
(dp3519
bg45
(g120
((I0
S'1L'
p3520
I-2
I1
tp3521
tp3522
Rp3523
(dp3524
g126
I53
sbg129
g298
g577
g1088
g65
(g307
tp3525
Rp3526
(dp3527
btp3528
Rp3529
(dp3530
bg45
(g120
((I0
S'1L'
p3531
I-2
I1
tp3532
tp3533
Rp3534
(dp3535
g126
I53
sbg129
g325
g594
g1077
g65
(g11
(g654
g685
tp3536
Rp3537
(dp3538
btp3539
Rp3540
(dp3541
btp3542
Rp3543
(dp3544
bg45
(g120
((I0
S'1L'
p3545
I-2
I1
tp3546
tp3547
Rp3548
(dp3549
g126
I53
sbg129
g325
g594
g1088
g65
(g11
(g307
g334
tp3550
Rp3551
(dp3552
btp3553
Rp3554
(dp3555
btp3556
Rp3557
(dp3558
bg45
(g120
((I0
S'1L'
p3559
I-2
I1
tp3560
tp3561
Rp3562
(dp3563
g126
I53
sbg129
g325
g594
g1143
g3540
tp3564
Rp3565
(dp3566
bg45
(g120
((I0
S'1L'
p3567
I-2
I1
tp3568
tp3569
Rp3570
(dp3571
g126
I53
sbg129
g325
g594
g1154
g3554
tp3572
Rp3573
(dp3574
bg45
(g120
((I0
S'1L'
p3575
I-1
I1
tp3576
tp3577
Rp3578
(dp3579
g126
I53
sbg645
g129
g298
g577
g3449
tp3580
Rp3581
(dp3582
bg45
(g120
((I0
S'1L'
p3583
I-1
I1
tp3584
tp3585
Rp3586
(dp3587
g126
I53
sbg645
g129
g298
g577
g3474
tp3588
Rp3589
(dp3590
bg45
(g120
((I0
S'1L'
p3591
I-1
I1
tp3592
tp3593
Rp3594
(dp3595
g126
I53
sbg645
g129
g325
g594
g3463
tp3596
Rp3597
(dp3598
bg45
(g120
((I0
S'1L'
p3599
I-1
I1
tp3600
tp3601
Rp3602
(dp3603
g126
I53
sbg645
g129
g325
g594
g3488
tp3604
Rp3605
(dp3606
bg45
(g120
((I0
S'1L'
p3607
I-1
I1
tp3608
tp3609
Rp3610
(dp3611
g126
I53
sbg778
g129
g298
g594
g3449
tp3612
Rp3613
(dp3614
bg45
(g120
((I0
S'1L'
p3615
I-1
I1
tp3616
tp3617
Rp3618
(dp3619
g126
I53
sbg803
g129
g298
g594
g3474
tp3620
Rp3621
(dp3622
bg45
(g120
((I0
S'1L'
p3623
I-1
I1
tp3624
tp3625
Rp3626
(dp3627
g126
I53
sbg828
g298
g325
g594
g2817
tp3628
Rp3629
(dp3630
bg45
(g120
((I0
S'1L'
p3631
I-1
I1
tp3632
tp3633
Rp3634
(dp3635
g126
I53
sbg845
g298
g325
g594
g2836
tp3636
Rp3637
(dp3638
bg45
(g120
((I0
S'1L'
p3639
I-1
I1
tp3640
tp3641
Rp3642
(dp3643
g126
I53
sbg912
g58
g95
g628
g2863
tp3644
Rp3645
(dp3646
bg45
(g120
((I0
S'1L'
p3647
I-1
I1
tp3648
tp3649
Rp3650
(dp3651
g126
I53
sbg929
g58
g95
g628
g2890
tp3652
Rp3653
(dp3654
bg45
(g120
((I0
S'1L'
p3655
I-1
I1
tp3656
tp3657
Rp3658
(dp3659
g126
I53
sbg129
g298
g594
g1077
g3515
tp3660
Rp3661
(dp3662
bg45
(g120
((I0
S'1L'
p3663
I-1
I1
tp3664
tp3665
Rp3666
(dp3667
g126
I53
sbg129
g298
g594
g1088
g3526
tp3668
Rp3669
(dp3670
bg45
(g120
((I0
S'1L'
p3671
I0
I1
tp3672
tp3673
Rp3674
(dp3675
g126
I53
sbg645
g129
g298
g594
g3449
tp3676
Rp3677
(dp3678
bg45
(g120
((I0
S'1L'
p3679
I0
I1
tp3680
tp3681
Rp3682
(dp3683
g126
I53
sbg645
g129
g298
g594
g3474
tp3684
Rp3685
(dp3686
bg45
(g120
((I0
S'1L'
p3687
I0
I1
tp3688
tp3689
Rp3690
(dp3691
g126
I53
sbg645
g298
g325
g594
g2817
tp3692
Rp3693
(dp3694
bg45
(g120
((I0
S'1L'
p3695
I0
I1
tp3696
tp3697
Rp3698
(dp3699
g126
I53
sbg645
g298
g325
g594
g2836
tp3700
Rp3701
(dp3702
bg45
(g120
((I0
S'1L'
p3703
I0
I1
tp3704
tp3705
Rp3706
(dp3707
g126
I53
sbg645
g58
g95
g628
g2863
tp3708
Rp3709
(dp3710
bg45
(g120
((I0
S'1L'
p3711
I0
I1
tp3712
tp3713
Rp3714
(dp3715
g126
I53
sbg645
g58
g95
g628
g2890
tp3716
Rp3717
(dp3718
bg45
(g120
((I0
S'1L'
p3719
I0
I1
tp3720
tp3721
Rp3722
(dp3723
g126
I53
sbg778
g298
g325
g594
g2817
tp3724
Rp3725
(dp3726
bg45
(g120
((I0
S'1L'
p3727
I0
I1
tp3728
tp3729
Rp3730
(dp3731
g126
I53
sbg803
g298
g325
g594
g2836
tp3732
Rp3733
(dp3734
bg45
(g120
((I0
S'1L'
p3735
I0
I1
tp3736
tp3737
Rp3738
(dp3739
g126
I53
sbg862
g58
g95
g628
g2863
tp3740
Rp3741
(dp3742
bg45
(g120
((I0
S'1L'
p3743
I0
I1
tp3744
tp3745
Rp3746
(dp3747
g126
I53
sbg887
g58
g95
g628
g2890
tp3748
Rp3749
(dp3750
bg45
(g120
((I1
S'1L'
p3751
I-2
I1
tp3752
tp3753
Rp3754
(dp3755
g126
I53
sbg862
g129
g58
g611
g136
(g716
tp3756
Rp3757
(dp3758
btp3759
Rp3760
(dp3761
bg45
(g120
((I1
S'1L'
p3762
I-2
I1
tp3763
tp3764
Rp3765
(dp3766
g126
I53
sbg862
g129
g95
g628
g136
(g11
(g716
g747
tp3767
Rp3768
(dp3769
btp3770
Rp3771
(dp3772
btp3773
Rp3774
(dp3775
bg45
(g120
((I1
S'1L'
p3776
I-2
I1
tp3777
tp3778
Rp3779
(dp3780
g126
I53
sbg887
g129
g58
g611
g136
(g77
tp3781
Rp3782
(dp3783
btp3784
Rp3785
(dp3786
bg45
(g120
((I1
S'1L'
p3787
I-2
I1
tp3788
tp3789
Rp3790
(dp3791
g126
I53
sbg887
g129
g95
g628
g136
(g11
(g77
g104
tp3792
Rp3793
(dp3794
btp3795
Rp3796
(dp3797
btp3798
Rp3799
(dp3800
bg45
(g120
((I1
S'1L'
p3801
I-2
I1
tp3802
tp3803
Rp3804
(dp3805
g126
I53
sbg912
g129
g95
g628
g3771
tp3806
Rp3807
(dp3808
bg45
(g120
((I1
S'1L'
p3809
I-2
I1
tp3810
tp3811
Rp3812
(dp3813
g126
I53
sbg929
g129
g95
g628
g3796
tp3814
Rp3815
(dp3816
bg45
(g120
((I1
S'1L'
p3817
I-2
I1
tp3818
tp3819
Rp3820
(dp3821
g126
I53
sbg129
g58
g611
g1193
g65
(g716
tp3822
Rp3823
(dp3824
btp3825
Rp3826
(dp3827
bg45
(g120
((I1
S'1L'
p3828
I-2
I1
tp3829
tp3830
Rp3831
(dp3832
g126
I53
sbg129
g58
g611
g1204
g65
(g77
tp3833
Rp3834
(dp3835
btp3836
Rp3837
(dp3838
bg45
(g120
((I1
S'1L'
p3839
I-2
I1
tp3840
tp3841
Rp3842
(dp3843
g126
I53
sbg129
g95
g628
g1193
g65
(g11
(g716
g747
tp3844
Rp3845
(dp3846
btp3847
Rp3848
(dp3849
btp3850
Rp3851
(dp3852
bg45
(g120
((I1
S'1L'
p3853
I-2
I1
tp3854
tp3855
Rp3856
(dp3857
g126
I53
sbg129
g95
g628
g1204
g65
(g11
(g77
g104
tp3858
Rp3859
(dp3860
btp3861
Rp3862
(dp3863
btp3864
Rp3865
(dp3866
bg45
(g120
((I1
S'1L'
p3867
I-2
I1
tp3868
tp3869
Rp3870
(dp3871
g126
I53
sbg129
g95
g628
g1259
g3848
tp3872
Rp3873
(dp3874
bg45
(g120
((I1
S'1L'
p3875
I-2
I1
tp3876
tp3877
Rp3878
(dp3879
g126
I53
sbg129
g95
g628
g1270
g3862
tp3880
Rp3881
(dp3882
bg45
(g120
((I1
S'1L'
p3883
I-1
I1
tp3884
tp3885
Rp3886
(dp3887
g126
I53
sbg645
g129
g58
g611
g3757
tp3888
Rp3889
(dp3890
bg45
(g120
((I1
S'1L'
p3891
I-1
I1
tp3892
tp3893
Rp3894
(dp3895
g126
I53
sbg645
g129
g58
g611
g3782
tp3896
Rp3897
(dp3898
bg45
(g120
((I1
S'1L'
p3899
I-1
I1
tp3900
tp3901
Rp3902
(dp3903
g126
I53
sbg645
g129
g95
g628
g3771
tp3904
Rp3905
(dp3906
bg45
(g120
((I1
S'1L'
p3907
I-1
I1
tp3908
tp3909
Rp3910
(dp3911
g126
I53
sbg645
g129
g95
g628
g3796
tp3912
Rp3913
(dp3914
bg45
(g120
((I1
S'1L'
p3915
I-1
I1
tp3916
tp3917
Rp3918
(dp3919
g126
I53
sbg862
g129
g58
g628
g3757
tp3920
Rp3921
(dp3922
bg45
(g120
((I1
S'1L'
p3923
I-1
I1
tp3924
tp3925
Rp3926
(dp3927
g126
I53
sbg887
g129
g58
g628
g3782
tp3928
Rp3929
(dp3930
bg45
(g120
((I1
S'1L'
p3931
I-1
I1
tp3932
tp3933
Rp3934
(dp3935
g126
I53
sbg129
g58
g628
g1193
g3823
tp3936
Rp3937
(dp3938
bg45
(g120
((I1
S'1L'
p3939
I-1
I1
tp3940
tp3941
Rp3942
(dp3943
g126
I53
sbg129
g58
g628
g1204
g3834
tp3944
Rp3945
(dp3946
bg45
(g120
((I1
S'1L'
p3947
I-1
I1
tp3948
tp3949
Rp3950
(dp3951
g126
I53
sbg298
g325
g594
g1143
g2917
tp3952
Rp3953
(dp3954
bg45
(g120
((I1
S'1L'
p3955
I-1
I1
tp3956
tp3957
Rp3958
(dp3959
g126
I53
sbg298
g325
g594
g1154
g2944
tp3960
Rp3961
(dp3962
bg45
(g120
((I1
S'1L'
p3963
I-1
I1
tp3964
tp3965
Rp3966
(dp3967
g126
I53
sbg58
g95
g628
g1259
g2963
tp3968
Rp3969
(dp3970
bg45
(g120
((I1
S'1L'
p3971
I-1
I1
tp3972
tp3973
Rp3974
(dp3975
g126
I53
sbg58
g95
g628
g1270
g2982
tp3976
Rp3977
(dp3978
bg45
(g120
((I1
S'1L'
p3979
I0
I1
tp3980
tp3981
Rp3982
(dp3983
g126
I53
sbg645
g129
g58
g628
g3757
tp3984
Rp3985
(dp3986
bg45
(g120
((I1
S'1L'
p3987
I0
I1
tp3988
tp3989
Rp3990
(dp3991
g126
I53
sbg645
g129
g58
g628
g3782
tp3992
Rp3993
(dp3994
bg45
(g120
((I0
S'1L'
p3995
I-1
I1
tp3996
tp3997
Rp3998
(dp3999
g126
I53
sbg48
g1069
g129
g298
g577
g3515
tp4000
Rp4001
(dp4002
bg45
(g120
((I0
S'1L'
p4003
I-1
I1
tp4004
tp4005
Rp4006
(dp4007
g126
I53
sbg48
g1069
g129
g325
g594
g3540
tp4008
Rp4009
(dp4010
bg45
(g120
((I0
S'1L'
p4011
I-1
I1
tp4012
tp4013
Rp4014
(dp4015
g126
I53
sbg48
g411
g129
g298
g577
g3526
tp4016
Rp4017
(dp4018
bg45
(g120
((I0
S'1L'
p4019
I-1
I1
tp4020
tp4021
Rp4022
(dp4023
g126
I53
sbg48
g411
g129
g325
g594
g3554
tp4024
Rp4025
(dp4026
bg45
(g120
((I0
S'1L'
p4027
I-1
I1
tp4028
tp4029
Rp4030
(dp4031
g126
I53
sbg48
g1135
g129
g325
g594
g3540
tp4032
Rp4033
(dp4034
bg45
(g120
((I0
S'1L'
p4035
I-1
I1
tp4036
tp4037
Rp4038
(dp4039
g126
I53
sbg48
g426
g129
g325
g594
g3554
tp4040
Rp4041
(dp4042
bg45
(g120
((I0
S'1L'
p4043
I-1
I1
tp4044
tp4045
Rp4046
(dp4047
g126
I53
sbg1069
g1135
g129
g325
g594
g3540
tp4048
Rp4049
(dp4050
bg45
(g120
((I0
S'1L'
p4051
I-1
I1
tp4052
tp4053
Rp4054
(dp4055
g126
I53
sbg411
g426
g129
g325
g594
g3554
tp4056
Rp4057
(dp4058
bg45
(g120
((I0
S'1L'
p4059
I0
I1
tp4060
tp4061
Rp4062
(dp4063
g126
I53
sbg48
g1069
g129
g298
g594
g3515
tp4064
Rp4065
(dp4066
bg45
(g120
((I0
S'1L'
p4067
I0
I1
tp4068
tp4069
Rp4070
(dp4071
g126
I53
sbg48
g411
g129
g298
g594
g3526
tp4072
Rp4073
(dp4074
bg45
(g120
((I1
S'1L'
p4075
I-1
I1
tp4076
tp4077
Rp4078
(dp4079
g126
I53
sbg48
g1185
g129
g58
g611
g3823
tp4080
Rp4081
(dp4082
bg45
(g120
((I1
S'1L'
p4083
I-1
I1
tp4084
tp4085
Rp4086
(dp4087
g126
I53
sbg48
g1185
g129
g95
g628
g3848
tp4088
Rp4089
(dp4090
bg45
(g120
((I1
S'1L'
p4091
I-1
I1
tp4092
tp4093
Rp4094
(dp4095
g126
I53
sbg48
g151
g129
g58
g611
g3834
tp4096
Rp4097
(dp4098
bg45
(g120
((I1
S'1L'
p4099
I-1
I1
tp4100
tp4101
Rp4102
(dp4103
g126
I53
sbg48
g151
g129
g95
g628
g3862
tp4104
Rp4105
(dp4106
bg45
(g120
((I1
S'1L'
p4107
I-1
I1
tp4108
tp4109
Rp4110
(dp4111
g126
I53
sbg48
g1251
g129
g95
g628
g3848
tp4112
Rp4113
(dp4114
bg45
(g120
((I1
S'1L'
p4115
I-1
I1
tp4116
tp4117
Rp4118
(dp4119
g126
I53
sbg48
g166
g129
g95
g628
g3862
tp4120
Rp4121
(dp4122
bg45
(g120
((I1
S'1L'
p4123
I-1
I1
tp4124
tp4125
Rp4126
(dp4127
g126
I53
sbg1185
g1251
g129
g95
g628
g3848
tp4128
Rp4129
(dp4130
bg45
(g120
((I1
S'1L'
p4131
I-1
I1
tp4132
tp4133
Rp4134
(dp4135
g126
I53
sbg151
g166
g129
g95
g628
g3862
tp4136
Rp4137
(dp4138
bg45
(g120
((I1
S'1L'
p4139
I0
I1
tp4140
tp4141
Rp4142
(dp4143
g126
I53
sbg48
g1135
g298
g325
g594
g2917
tp4144
Rp4145
(dp4146
bg45
(g120
((I1
S'1L'
p4147
I0
I1
tp4148
tp4149
Rp4150
(dp4151
g126
I53
sbg48
g426
g298
g325
g594
g2944
tp4152
Rp4153
(dp4154
bg45
(g120
((I1
S'1L'
p4155
I0
I1
tp4156
tp4157
Rp4158
(dp4159
g126
I53
sbg48
g1185
g129
g58
g628
g3823
tp4160
Rp4161
(dp4162
bg45
(g120
((I1
S'1L'
p4163
I0
I1
tp4164
tp4165
Rp4166
(dp4167
g126
I53
sbg48
g151
g129
g58
g628
g3834
tp4168
Rp4169
(dp4170
bg45
(g120
((I1
S'1L'
p4171
I0
I1
tp4172
tp4173
Rp4174
(dp4175
g126
I53
sbg48
g1251
g58
g95
g628
g2963
tp4176
Rp4177
(dp4178
bg45
(g120
((I1
S'1L'
p4179
I0
I1
tp4180
tp4181
Rp4182
(dp4183
g126
I53
sbg48
g166
g58
g95
g628
g2982
tp4184
Rp4185
(dp4186
bg45
(g120
((I1
S'1L'
p4187
I0
I1
tp4188
tp4189
Rp4190
(dp4191
g126
I53
sbg1069
g1135
g298
g325
g594
g2917
tp4192
Rp4193
(dp4194
bg45
(g120
((I1
S'1L'
p4195
I0
I1
tp4196
tp4197
Rp4198
(dp4199
g126
I53
sbg411
g426
g298
g325
g594
g2944
tp4200
Rp4201
(dp4202
bg45
(g120
((I1
S'1L'
p4203
I0
I1
tp4204
tp4205
Rp4206
(dp4207
g126
I53
sbg1185
g1251
g58
g95
g628
g2963
tp4208
Rp4209
(dp4210
bg45
(g120
((I1
S'1L'
p4211
I0
I1
tp4212
tp4213
Rp4214
(dp4215
g126
I53
sbg151
g166
g58
g95
g628
g2982
tp4216
Rp4217
(dp4218
btp4219
Rp4220
(dp4221
bag11
(g45
(g120
((I1
S'1L'
p4222
I0
I1
tp4223
tp4224
Rp4225
(dp4226
g126
I53
sbg12
(S'\\tau_{f1R}'
p4227
tp4228
Rp4229
(dp4230
g17
g2
(g18
g19
(dp4231
g21
Nsg51
Nsg22
Nsg23
Nsg24
Nsg25
Nsg33
Nsg27
Nsg28
Nsg26
Nsg30
Nsg29
Nsg31
Nsg32
I01
sg34
Nsg35
Nsg36
Nsg37
Nsg38
Nsg39
Nstp4232
Rp4233
(dp4234
g43
(dp4235
sbsbtp4236
Rp4237
(dp4238
bg45
(g120
((I0
S'1L'
p4239
I0
I1
tp4240
tp4241
Rp4242
(dp4243
g126
I53
sbg2399
g645
tp4244
Rp4245
(dp4246
bg45
(g120
((I0
S'1L'
p4247
I0
I1
tp4248
tp4249
Rp4250
(dp4251
g126
I53
sbg2399
g803
tp4252
Rp4253
(dp4254
bg45
(g120
((I0
S'1L'
p4255
I0
I1
tp4256
tp4257
Rp4258
(dp4259
g126
I53
sbg2424
g645
tp4260
Rp4261
(dp4262
bg45
(g120
((I0
S'1L'
p4263
I0
I1
tp4264
tp4265
Rp4266
(dp4267
g126
I53
sbg2424
g803
tp4268
Rp4269
(dp4270
bg45
(g120
((I0
S'1L'
p4271
I0
I1
tp4272
tp4273
Rp4274
(dp4275
g126
I53
sbg2424
g845
tp4276
Rp4277
(dp4278
bg45
(g120
((I0
S'1L'
p4279
I-2
I1
tp4280
tp4281
Rp4282
(dp4283
g126
I53
sbg645
g577
g2562
tp4284
Rp4285
(dp4286
bg45
(g120
((I0
S'1L'
p4287
I-2
I1
tp4288
tp4289
Rp4290
(dp4291
g126
I53
sbg645
g594
g2573
tp4292
Rp4293
(dp4294
bg45
(g120
((I0
S'1L'
p4295
I-2
I1
tp4296
tp4297
Rp4298
(dp4299
g126
I53
sbg803
g577
g2562
tp4300
Rp4301
(dp4302
bg45
(g120
((I0
S'1L'
p4303
I-2
I1
tp4304
tp4305
Rp4306
(dp4307
g126
I53
sbg803
g594
g2573
tp4308
Rp4309
(dp4310
bg45
(g120
((I0
S'1L'
p4311
I-2
I1
tp4312
tp4313
Rp4314
(dp4315
g126
I53
sbg845
g594
g2573
tp4316
Rp4317
(dp4318
bg45
(g120
((I0
S'1L'
p4319
I0
I1
tp4320
tp4321
Rp4322
(dp4323
g126
I53
sbg645
g594
g2562
tp4324
Rp4325
(dp4326
bg45
(g120
((I0
S'1L'
p4327
I0
I1
tp4328
tp4329
Rp4330
(dp4331
g126
I53
sbg803
g594
g2562
tp4332
Rp4333
(dp4334
bg45
(g120
((I1
S'1L'
p4335
I-1
I1
tp4336
tp4337
Rp4338
(dp4339
g126
I53
sbg500
g325
g2836
tp4340
Rp4341
(dp4342
bg45
(g120
((I1
S'1L'
p4343
I-1
I1
tp4344
tp4345
Rp4346
(dp4347
g126
I53
sbg500
g325
g368
tp4348
Rp4349
(dp4350
bg45
(g120
((I1
S'1L'
p4351
I-1
I1
tp4352
tp4353
Rp4354
(dp4355
g126
I53
sbg1558
g325
g2944
tp4356
Rp4357
(dp4358
bg45
(g120
((I1
S'1L'
p4359
I-1
I1
tp4360
tp4361
Rp4362
(dp4363
g126
I53
sbg1558
g325
g345
tp4364
Rp4365
(dp4366
bg45
(g120
((I1
S'1L'
p4367
I0
I1
tp4368
tp4369
Rp4370
(dp4371
g126
I53
sbg500
g298
g362
tp4372
Rp4373
(dp4374
bg45
(g120
((I1
S'1L'
p4375
I0
I1
tp4376
tp4377
Rp4378
(dp4379
g126
I53
sbg1558
g298
g318
tp4380
Rp4381
(dp4382
bg45
(g120
((I0
S'1L'
p4383
I-1
I1
tp4384
tp4385
Rp4386
(dp4387
g126
I53
sbg551
g298
g577
g362
tp4388
Rp4389
(dp4390
bg45
(g120
((I0
S'1L'
p4391
I-1
I1
tp4392
tp4393
Rp4394
(dp4395
g126
I53
sbg551
g325
g594
g368
tp4396
Rp4397
(dp4398
bg45
(g120
((I0
S'1L'
p4399
I-1
I1
tp4400
tp4401
Rp4402
(dp4403
g126
I53
sbg1609
g298
g577
g318
tp4404
Rp4405
(dp4406
bg45
(g120
((I0
S'1L'
p4407
I-1
I1
tp4408
tp4409
Rp4410
(dp4411
g126
I53
sbg1609
g325
g594
g345
tp4412
Rp4413
(dp4414
bg45
(g120
((I0
S'1L'
p4415
I-1
I1
tp4416
tp4417
Rp4418
(dp4419
g126
I53
sbg1626
g298
g577
g318
tp4420
Rp4421
(dp4422
bg45
(g120
((I0
S'1L'
p4423
I-1
I1
tp4424
tp4425
Rp4426
(dp4427
g126
I53
sbg1626
g325
g594
g345
tp4428
Rp4429
(dp4430
bg45
(g120
((I0
S'1L'
p4431
I0
I1
tp4432
tp4433
Rp4434
(dp4435
g126
I53
sbg551
g298
g594
g362
tp4436
Rp4437
(dp4438
bg45
(g120
((I0
S'1L'
p4439
I0
I1
tp4440
tp4441
Rp4442
(dp4443
g126
I53
sbg1609
g298
g594
g318
tp4444
Rp4445
(dp4446
bg45
(g120
((I0
S'1L'
p4447
I0
I1
tp4448
tp4449
Rp4450
(dp4451
g126
I53
sbg1626
g298
g594
g318
tp4452
Rp4453
(dp4454
bg45
(g120
((I0
S'1L'
p4455
I-2
I1
tp4456
tp4457
Rp4458
(dp4459
g126
I53
sbg645
g129
g298
g577
g3474
tp4460
Rp4461
(dp4462
bg45
(g120
((I0
S'1L'
p4463
I-2
I1
tp4464
tp4465
Rp4466
(dp4467
g126
I53
sbg645
g129
g325
g594
g3488
tp4468
Rp4469
(dp4470
bg45
(g120
((I0
S'1L'
p4471
I-1
I1
tp4472
tp4473
Rp4474
(dp4475
g126
I53
sbg645
g129
g298
g594
g3474
tp4476
Rp4477
(dp4478
bg45
(g120
((I0
S'1L'
p4479
I-1
I1
tp4480
tp4481
Rp4482
(dp4483
g126
I53
sbg845
g298
g325
g594
g2836
tp4484
Rp4485
(dp4486
bg45
(g120
((I0
S'1L'
p4487
I0
I1
tp4488
tp4489
Rp4490
(dp4491
g126
I53
sbg645
g298
g325
g594
g2836
tp4492
Rp4493
(dp4494
bg45
(g120
((I0
S'1L'
p4495
I0
I1
tp4496
tp4497
Rp4498
(dp4499
g126
I53
sbg803
g298
g325
g594
g2836
tp4500
Rp4501
(dp4502
bg45
(g120
((I1
S'1L'
p4503
I-2
I1
tp4504
tp4505
Rp4506
(dp4507
g126
I53
sbg129
g298
g577
g1030
g3526
tp4508
Rp4509
(dp4510
bg45
(g120
((I1
S'1L'
p4511
I-2
I1
tp4512
tp4513
Rp4514
(dp4515
g126
I53
sbg129
g325
g594
g1030
g3554
tp4516
Rp4517
(dp4518
bg45
(g120
((I1
S'1L'
p4519
I-1
I1
tp4520
tp4521
Rp4522
(dp4523
g126
I53
sbg129
g298
g594
g1030
g3526
tp4524
Rp4525
(dp4526
bg45
(g120
((I1
S'1L'
p4527
I-1
I1
tp4528
tp4529
Rp4530
(dp4531
g126
I53
sbg298
g325
g594
g1154
g2944
tp4532
Rp4533
(dp4534
bg45
(g120
((I1
S'1L'
p4535
I0
I1
tp4536
tp4537
Rp4538
(dp4539
g126
I53
sbg48
g426
g298
g325
g594
g2944
tp4540
Rp4541
(dp4542
bg45
(g120
((I1
S'1L'
p4543
I0
I1
tp4544
tp4545
Rp4546
(dp4547
g126
I53
sbg411
g426
g298
g325
g594
g2944
tp4548
Rp4549
(dp4550
btp4551
Rp4552
(dp4553
bag11
(g45
(g120
((I1
S'1L'
p4554
I0
I1
tp4555
tp4556
Rp4557
(dp4558
g126
I53
sbg12
(S'\\tau_{f2R}'
p4559
tp4560
Rp4561
(dp4562
g17
g2
(g18
g19
(dp4563
g21
Nsg51
Nsg22
Nsg23
Nsg24
Nsg25
Nsg33
Nsg27
Nsg28
Nsg26
Nsg30
Nsg29
Nsg31
Nsg32
I01
sg34
Nsg35
Nsg36
Nsg37
Nsg38
Nsg39
Nstp4564
Rp4565
(dp4566
g43
(dp4567
sbsbtp4568
Rp4569
(dp4570
bg45
(g120
((I0
S'1L'
p4571
I0
I1
tp4572
tp4573
Rp4574
(dp4575
g126
I53
sbg2424
g645
tp4576
Rp4577
(dp4578
bg45
(g120
((I0
S'1L'
p4579
I0
I1
tp4580
tp4581
Rp4582
(dp4583
g126
I53
sbg2424
g803
tp4584
Rp4585
(dp4586
bg45
(g120
((I0
S'1L'
p4587
I0
I1
tp4588
tp4589
Rp4590
(dp4591
g126
I53
sbg2424
g845
tp4592
Rp4593
(dp4594
bg45
(g120
((I0
S'1L'
p4595
I-2
I1
tp4596
tp4597
Rp4598
(dp4599
g126
I53
sbg645
g594
g2573
tp4600
Rp4601
(dp4602
bg45
(g120
((I0
S'1L'
p4603
I-2
I1
tp4604
tp4605
Rp4606
(dp4607
g126
I53
sbg803
g594
g2573
tp4608
Rp4609
(dp4610
bg45
(g120
((I0
S'1L'
p4611
I-2
I1
tp4612
tp4613
Rp4614
(dp4615
g126
I53
sbg845
g594
g2573
tp4616
Rp4617
(dp4618
bg45
(g120
((I1
S'1L'
p4619
I-1
I1
tp4620
tp4621
Rp4622
(dp4623
g126
I53
sbg500
g325
g2836
tp4624
Rp4625
(dp4626
bg45
(g120
((I1
S'1L'
p4627
I-1
I1
tp4628
tp4629
Rp4630
(dp4631
g126
I53
sbg500
g325
g368
tp4632
Rp4633
(dp4634
bg45
(g120
((I1
S'1L'
p4635
I-1
I1
tp4636
tp4637
Rp4638
(dp4639
g126
I53
sbg1558
g325
g2944
tp4640
Rp4641
(dp4642
bg45
(g120
((I1
S'1L'
p4643
I-1
I1
tp4644
tp4645
Rp4646
(dp4647
g126
I53
sbg1558
g325
g345
tp4648
Rp4649
(dp4650
bg45
(g120
((I0
S'1L'
p4651
I-1
I1
tp4652
tp4653
Rp4654
(dp4655
g126
I53
sbg551
g325
g594
g368
tp4656
Rp4657
(dp4658
bg45
(g120
((I0
S'1L'
p4659
I-1
I1
tp4660
tp4661
Rp4662
(dp4663
g126
I53
sbg1609
g325
g594
g345
tp4664
Rp4665
(dp4666
bg45
(g120
((I0
S'1L'
p4667
I-1
I1
tp4668
tp4669
Rp4670
(dp4671
g126
I53
sbg1626
g325
g594
g345
tp4672
Rp4673
(dp4674
bg45
(g120
((I0
S'1L'
p4675
I-2
I1
tp4676
tp4677
Rp4678
(dp4679
g126
I53
sbg645
g129
g325
g594
g3488
tp4680
Rp4681
(dp4682
bg45
(g120
((I0
S'1L'
p4683
I-1
I1
tp4684
tp4685
Rp4686
(dp4687
g126
I53
sbg645
g298
g325
g594
g2836
tp4688
Rp4689
(dp4690
bg45
(g120
((I0
S'1L'
p4691
I-1
I1
tp4692
tp4693
Rp4694
(dp4695
g126
I53
sbg803
g298
g325
g594
g2836
tp4696
Rp4697
(dp4698
bg45
(g120
((I0
S'1L'
p4699
I-1
I1
tp4700
tp4701
Rp4702
(dp4703
g126
I53
sbg298
g325
g594
g1030
g2944
tp4704
Rp4705
(dp4706
bg45
(g120
((I0
S'1L'
p4707
I-1
I1
tp4708
tp4709
Rp4710
(dp4711
g126
I53
sbg298
g325
g594
g1088
g2944
tp4712
Rp4713
(dp4714
bg45
(g120
((I1
S'1L'
p4715
I-2
I1
tp4716
tp4717
Rp4718
(dp4719
g126
I53
sbg129
g325
g594
g1030
g3554
tp4720
Rp4721
(dp4722
bg45
(g120
((I0
S'1L'
p4723
I0
I1
tp4724
tp4725
Rp4726
(dp4727
g126
I53
sbg48
g411
g298
g325
g594
g2944
tp4728
Rp4729
(dp4730
btp4731
Rp4732
(dp4733
bag11
(g45
(g120
((I1
S'1L'
p4734
I0
I1
tp4735
tp4736
Rp4737
(dp4738
g126
I53
sbg12
(S'\\tau_{h1R}'
p4739
tp4740
Rp4741
(dp4742
g17
g2
(g18
g19
(dp4743
g21
Nsg51
Nsg22
Nsg23
Nsg24
Nsg25
Nsg33
Nsg27
Nsg28
Nsg26
Nsg30
Nsg29
Nsg31
Nsg32
I01
sg34
Nsg35
Nsg36
Nsg37
Nsg38
Nsg39
Nstp4744
Rp4745
(dp4746
g43
(dp4747
sbsbtp4748
Rp4749
(dp4750
bg45
(g120
((I0
S'1L'
p4751
I0
I1
tp4752
tp4753
Rp4754
(dp4755
g126
I53
sbg2465
g645
tp4756
Rp4757
(dp4758
bg45
(g120
((I0
S'1L'
p4759
I0
I1
tp4760
tp4761
Rp4762
(dp4763
g126
I53
sbg2465
g887
tp4764
Rp4765
(dp4766
bg45
(g120
((I0
S'1L'
p4767
I0
I1
tp4768
tp4769
Rp4770
(dp4771
g126
I53
sbg2490
g645
tp4772
Rp4773
(dp4774
bg45
(g120
((I0
S'1L'
p4775
I0
I1
tp4776
tp4777
Rp4778
(dp4779
g126
I53
sbg2490
g887
tp4780
Rp4781
(dp4782
bg45
(g120
((I0
S'1L'
p4783
I0
I1
tp4784
tp4785
Rp4786
(dp4787
g126
I53
sbg2490
g929
tp4788
Rp4789
(dp4790
bg45
(g120
((I0
S'1L'
p4791
I-2
I1
tp4792
tp4793
Rp4794
(dp4795
g126
I53
sbg645
g611
g2616
tp4796
Rp4797
(dp4798
bg45
(g120
((I0
S'1L'
p4799
I-2
I1
tp4800
tp4801
Rp4802
(dp4803
g126
I53
sbg645
g628
g2627
tp4804
Rp4805
(dp4806
bg45
(g120
((I0
S'1L'
p4807
I-2
I1
tp4808
tp4809
Rp4810
(dp4811
g126
I53
sbg887
g611
g2616
tp4812
Rp4813
(dp4814
bg45
(g120
((I0
S'1L'
p4815
I-2
I1
tp4816
tp4817
Rp4818
(dp4819
g126
I53
sbg887
g628
g2627
tp4820
Rp4821
(dp4822
bg45
(g120
((I0
S'1L'
p4823
I-2
I1
tp4824
tp4825
Rp4826
(dp4827
g126
I53
sbg929
g628
g2627
tp4828
Rp4829
(dp4830
bg45
(g120
((I0
S'1L'
p4831
I0
I1
tp4832
tp4833
Rp4834
(dp4835
g126
I53
sbg645
g628
g2616
tp4836
Rp4837
(dp4838
bg45
(g120
((I0
S'1L'
p4839
I0
I1
tp4840
tp4841
Rp4842
(dp4843
g126
I53
sbg887
g628
g2616
tp4844
Rp4845
(dp4846
bg45
(g120
((I1
S'1L'
p4847
I-1
I1
tp4848
tp4849
Rp4850
(dp4851
g126
I53
sbg534
g95
g2890
tp4852
Rp4853
(dp4854
bg45
(g120
((I1
S'1L'
p4855
I-1
I1
tp4856
tp4857
Rp4858
(dp4859
g126
I53
sbg534
g95
g115
tp4860
Rp4861
(dp4862
bg45
(g120
((I1
S'1L'
p4863
I-1
I1
tp4864
tp4865
Rp4866
(dp4867
g126
I53
sbg1592
g95
g2982
tp4868
Rp4869
(dp4870
bg45
(g120
((I1
S'1L'
p4871
I-1
I1
tp4872
tp4873
Rp4874
(dp4875
g126
I53
sbg1592
g95
g195
tp4876
Rp4877
(dp4878
bg45
(g120
((I1
S'1L'
p4879
I0
I1
tp4880
tp4881
Rp4882
(dp4883
g126
I53
sbg534
g58
g88
tp4884
Rp4885
(dp4886
bg45
(g120
((I1
S'1L'
p4887
I0
I1
tp4888
tp4889
Rp4890
(dp4891
g126
I53
sbg1592
g58
g189
tp4892
Rp4893
(dp4894
bg45
(g120
((I0
S'1L'
p4895
I-1
I1
tp4896
tp4897
Rp4898
(dp4899
g126
I53
sbg551
g58
g611
g88
tp4900
Rp4901
(dp4902
bg45
(g120
((I0
S'1L'
p4903
I-1
I1
tp4904
tp4905
Rp4906
(dp4907
g126
I53
sbg551
g95
g628
g115
tp4908
Rp4909
(dp4910
bg45
(g120
((I0
S'1L'
p4911
I-1
I1
tp4912
tp4913
Rp4914
(dp4915
g126
I53
sbg1609
g58
g611
g189
tp4916
Rp4917
(dp4918
bg45
(g120
((I0
S'1L'
p4919
I-1
I1
tp4920
tp4921
Rp4922
(dp4923
g126
I53
sbg1609
g95
g628
g195
tp4924
Rp4925
(dp4926
bg45
(g120
((I0
S'1L'
p4927
I-1
I1
tp4928
tp4929
Rp4930
(dp4931
g126
I53
sbg1626
g58
g611
g189
tp4932
Rp4933
(dp4934
bg45
(g120
((I0
S'1L'
p4935
I-1
I1
tp4936
tp4937
Rp4938
(dp4939
g126
I53
sbg1626
g95
g628
g195
tp4940
Rp4941
(dp4942
bg45
(g120
((I0
S'1L'
p4943
I0
I1
tp4944
tp4945
Rp4946
(dp4947
g126
I53
sbg551
g58
g628
g88
tp4948
Rp4949
(dp4950
bg45
(g120
((I0
S'1L'
p4951
I0
I1
tp4952
tp4953
Rp4954
(dp4955
g126
I53
sbg1609
g58
g628
g189
tp4956
Rp4957
(dp4958
bg45
(g120
((I0
S'1L'
p4959
I0
I1
tp4960
tp4961
Rp4962
(dp4963
g126
I53
sbg1626
g58
g628
g189
tp4964
Rp4965
(dp4966
bg45
(g120
((I0
S'1L'
p4967
I-2
I1
tp4968
tp4969
Rp4970
(dp4971
g126
I53
sbg129
g58
g611
g1030
g3834
tp4972
Rp4973
(dp4974
bg45
(g120
((I0
S'1L'
p4975
I-2
I1
tp4976
tp4977
Rp4978
(dp4979
g126
I53
sbg129
g95
g628
g1030
g3862
tp4980
Rp4981
(dp4982
bg45
(g120
((I0
S'1L'
p4983
I-1
I1
tp4984
tp4985
Rp4986
(dp4987
g126
I53
sbg929
g58
g95
g628
g2890
tp4988
Rp4989
(dp4990
bg45
(g120
((I0
S'1L'
p4991
I-1
I1
tp4992
tp4993
Rp4994
(dp4995
g126
I53
sbg129
g58
g628
g1030
g3834
tp4996
Rp4997
(dp4998
bg45
(g120
((I0
S'1L'
p4999
I0
I1
tp5000
tp5001
Rp5002
(dp5003
g126
I53
sbg645
g58
g95
g628
g2890
tp5004
Rp5005
(dp5006
bg45
(g120
((I0
S'1L'
p5007
I0
I1
tp5008
tp5009
Rp5010
(dp5011
g126
I53
sbg887
g58
g95
g628
g2890
tp5012
Rp5013
(dp5014
bg45
(g120
((I1
S'1L'
p5015
I-2
I1
tp5016
tp5017
Rp5018
(dp5019
g126
I53
sbg645
g129
g58
g611
g3782
tp5020
Rp5021
(dp5022
bg45
(g120
((I1
S'1L'
p5023
I-2
I1
tp5024
tp5025
Rp5026
(dp5027
g126
I53
sbg645
g129
g95
g628
g3796
tp5028
Rp5029
(dp5030
bg45
(g120
((I1
S'1L'
p5031
I-1
I1
tp5032
tp5033
Rp5034
(dp5035
g126
I53
sbg645
g129
g58
g628
g3782
tp5036
Rp5037
(dp5038
bg45
(g120
((I1
S'1L'
p5039
I-1
I1
tp5040
tp5041
Rp5042
(dp5043
g126
I53
sbg58
g95
g628
g1270
g2982
tp5044
Rp5045
(dp5046
bg45
(g120
((I1
S'1L'
p5047
I0
I1
tp5048
tp5049
Rp5050
(dp5051
g126
I53
sbg48
g166
g58
g95
g628
g2982
tp5052
Rp5053
(dp5054
bg45
(g120
((I1
S'1L'
p5055
I0
I1
tp5056
tp5057
Rp5058
(dp5059
g126
I53
sbg151
g166
g58
g95
g628
g2982
tp5060
Rp5061
(dp5062
btp5063
Rp5064
(dp5065
bag11
(g45
(g120
((I1
S'1L'
p5066
I0
I1
tp5067
tp5068
Rp5069
(dp5070
g126
I53
sbg12
(S'\\tau_{h2R}'
p5071
tp5072
Rp5073
(dp5074
g17
g2
(g18
g19
(dp5075
g21
Nsg51
Nsg22
Nsg23
Nsg24
Nsg25
Nsg26
Nsg27
Nsg28
Nsg29
Nsg30
Nsg31
Nsg32
I01
sg33
Nsg34
Nsg35
Nsg36
Nsg37
Nsg38
Nsg39
Nstp5076
Rp5077
(dp5078
g43
(dp5079
sbsbtp5080
Rp5081
(dp5082
bg45
(g120
((I0
S'1L'
p5083
I0
I1
tp5084
tp5085
Rp5086
(dp5087
g126
I53
sbg2490
g645
tp5088
Rp5089
(dp5090
bg45
(g120
((I0
S'1L'
p5091
I0
I1
tp5092
tp5093
Rp5094
(dp5095
g126
I53
sbg2490
g887
tp5096
Rp5097
(dp5098
bg45
(g120
((I0
S'1L'
p5099
I0
I1
tp5100
tp5101
Rp5102
(dp5103
g126
I53
sbg2490
g929
tp5104
Rp5105
(dp5106
bg45
(g120
((I0
S'1L'
p5107
I-2
I1
tp5108
tp5109
Rp5110
(dp5111
g126
I53
sbg645
g628
g2627
tp5112
Rp5113
(dp5114
bg45
(g120
((I0
S'1L'
p5115
I-2
I1
tp5116
tp5117
Rp5118
(dp5119
g126
I53
sbg887
g628
g2627
tp5120
Rp5121
(dp5122
bg45
(g120
((I0
S'1L'
p5123
I-2
I1
tp5124
tp5125
Rp5126
(dp5127
g126
I53
sbg929
g628
g2627
tp5128
Rp5129
(dp5130
bg45
(g120
((I1
S'1L'
p5131
I-1
I1
tp5132
tp5133
Rp5134
(dp5135
g126
I53
sbg534
g95
g2890
tp5136
Rp5137
(dp5138
bg45
(g120
((I1
S'1L'
p5139
I-1
I1
tp5140
tp5141
Rp5142
(dp5143
g126
I53
sbg534
g95
g115
tp5144
Rp5145
(dp5146
bg45
(g120
((I1
S'1L'
p5147
I-1
I1
tp5148
tp5149
Rp5150
(dp5151
g126
I53
sbg1592
g95
g2982
tp5152
Rp5153
(dp5154
bg45
(g120
((I1
S'1L'
p5155
I-1
I1
tp5156
tp5157
Rp5158
(dp5159
g126
I53
sbg1592
g95
g195
tp5160
Rp5161
(dp5162
bg45
(g120
((I0
S'1L'
p5163
I-1
I1
tp5164
tp5165
Rp5166
(dp5167
g126
I53
sbg551
g95
g628
g115
tp5168
Rp5169
(dp5170
bg45
(g120
((I0
S'1L'
p5171
I-1
I1
tp5172
tp5173
Rp5174
(dp5175
g126
I53
sbg1609
g95
g628
g195
tp5176
Rp5177
(dp5178
bg45
(g120
((I0
S'1L'
p5179
I-1
I1
tp5180
tp5181
Rp5182
(dp5183
g126
I53
sbg1626
g95
g628
g195
tp5184
Rp5185
(dp5186
bg45
(g120
((I0
S'1L'
p5187
I-2
I1
tp5188
tp5189
Rp5190
(dp5191
g126
I53
sbg129
g95
g628
g1030
g3862
tp5192
Rp5193
(dp5194
bg45
(g120
((I0
S'1L'
p5195
I-1
I1
tp5196
tp5197
Rp5198
(dp5199
g126
I53
sbg645
g58
g95
g628
g2890
tp5200
Rp5201
(dp5202
bg45
(g120
((I0
S'1L'
p5203
I-1
I1
tp5204
tp5205
Rp5206
(dp5207
g126
I53
sbg887
g58
g95
g628
g2890
tp5208
Rp5209
(dp5210
bg45
(g120
((I0
S'1L'
p5211
I-1
I1
tp5212
tp5213
Rp5214
(dp5215
g126
I53
sbg58
g95
g628
g1030
g2982
tp5216
Rp5217
(dp5218
bg45
(g120
((I0
S'1L'
p5219
I-1
I1
tp5220
tp5221
Rp5222
(dp5223
g126
I53
sbg58
g95
g628
g1204
g2982
tp5224
Rp5225
(dp5226
bg45
(g120
((I1
S'1L'
p5227
I-2
I1
tp5228
tp5229
Rp5230
(dp5231
g126
I53
sbg645
g129
g95
g628
g3796
tp5232
Rp5233
(dp5234
bg45
(g120
((I0
S'1L'
p5235
I0
I1
tp5236
tp5237
Rp5238
(dp5239
g126
I53
sbg48
g151
g58
g95
g628
g2982
tp5240
Rp5241
(dp5242
btp5243
Rp5244
(dp5245
basg229
I1
sbs.